---
triple:          'arm64-apple-darwin'
binary-path:     '/Users/mahamimran/teesra semester/DS/i222733_F_FinalProject/i222733_F_FinalProject/output/main'
relocations:
  - { offsetInCU: 0x69A4, offset: 0x69A4, size: 0x8, addend: 0x0, symName: __ZNSt3__113__fill_n_trueB7v160006INS_6vectorIbNS_9allocatorIbEEEEEEvNS_14__bit_iteratorIT_Lb0EXLi0EEEENS6_9size_typeE, symObjAddr: 0x5F98, symBinAddr: 0x100006590, symSize: 0x160 }
  - { offsetInCU: 0x6A69, offset: 0x6A69, size: 0x8, addend: 0x0, symName: __ZNSt3__114__fill_n_falseB7v160006INS_6vectorIbNS_9allocatorIbEEEEEEvNS_14__bit_iteratorIT_Lb0EXLi0EEEENS6_9size_typeE, symObjAddr: 0x612C, symBinAddr: 0x100006724, symSize: 0x15C }
  - { offsetInCU: 0x911A, offset: 0x911A, size: 0x8, addend: 0x0, symName: __ZNSt3__117__floyd_sift_downB7v160006INS_17_ClassicAlgPolicyERNS_7greaterINS_4pairIiiEEEENS_11__wrap_iterIPS4_EEEET1_SA_OT0_NS_15iterator_traitsISA_E15difference_typeE, symObjAddr: 0xC0E4, symBinAddr: 0x10000C6DC, symSize: 0x148 }
  - { offsetInCU: 0xA92A, offset: 0xA92A, size: 0x8, addend: 0x0, symName: __ZNSt3__124__put_character_sequenceB7v160006IcNS_11char_traitsIcEEEERNS_13basic_ostreamIT_T0_EES7_PKS4_m, symObjAddr: 0x11750, symBinAddr: 0x100011D48, symSize: 0x1F4 }
  - { offsetInCU: 0xB8D4, offset: 0xB8D4, size: 0x8, addend: 0x0, symName: __ZNSt3__19__shuffleB7v160006INS_17_ClassicAlgPolicyENS_11__wrap_iterIPiEES4_RNS_23mersenne_twister_engineIjLm32ELm624ELm397ELm31ELj2567483615ELm11ELj4294967295ELm7ELj2636928640ELm15ELj4022730752ELm18ELj1812433253EEEEET0_S8_T1_OT2_, symObjAddr: 0x13F90, symBinAddr: 0x100014588, symSize: 0x148 }
  - { offsetInCU: 0x113D9, offset: 0x113D9, size: 0x8, addend: 0x0, symName: __ZNSt3__1lsB7v160006INS_11char_traitsIcEEEERNS_13basic_ostreamIcT_EES6_c, symObjAddr: 0x370, symBinAddr: 0x100000968, symSize: 0x34 }
  - { offsetInCU: 0x1141F, offset: 0x1141F, size: 0x8, addend: 0x0, symName: __ZNSt3__1neB7v160006ERKNS_15__list_iteratorI8ObstaclePvEES5_, symObjAddr: 0x43C, symBinAddr: 0x100000A34, symSize: 0x34 }
  - { offsetInCU: 0x1145C, offset: 0x1145C, size: 0x8, addend: 0x0, symName: __ZNSt3__1lsB7v160006INS_11char_traitsIcEEEERNS_13basic_ostreamIcT_EES6_PKc, symObjAddr: 0x4BC, symBinAddr: 0x100000AB4, symSize: 0x48 }
  - { offsetInCU: 0x114A2, offset: 0x114A2, size: 0x8, addend: 0x0, symName: __ZNSt3__14endlB7v160006IcNS_11char_traitsIcEEEERNS_13basic_ostreamIT_T0_EES7_, symObjAddr: 0x608, symBinAddr: 0x100000C00, symSize: 0x58 }
  - { offsetInCU: 0x114E2, offset: 0x114E2, size: 0x8, addend: 0x0, symName: __ZNSt3__14findB7v160006INS_11__wrap_iterIPiEEiEET_S4_S4_RKT0_, symObjAddr: 0x83C, symBinAddr: 0x100000E34, symSize: 0x80 }
  - { offsetInCU: 0x1153C, offset: 0x1153C, size: 0x8, addend: 0x0, symName: __ZNSt3__1neB7v160006IPiEEbRKNS_11__wrap_iterIT_EES6_, symObjAddr: 0x91C, symBinAddr: 0x100000F14, symSize: 0x34 }
  - { offsetInCU: 0x12C2F, offset: 0x12C2F, size: 0x8, addend: 0x0, symName: __ZNSt3__17shuffleB7v160006INS_11__wrap_iterIPiEERNS_23mersenne_twister_engineIjLm32ELm624ELm397ELm31ELj2567483615ELm11ELj4294967295ELm7ELj2636928640ELm15ELj4022730752ELm18ELj1812433253EEEEEvT_S7_OT0_, symObjAddr: 0x1388, symBinAddr: 0x100001980, symSize: 0x48 }
  - { offsetInCU: 0x13498, offset: 0x13498, size: 0x8, addend: 0x0, symName: __ZNSt3__1lsB7v160006IcNS_11char_traitsIcEENS_9allocatorIcEEEERNS_13basic_ostreamIT_T0_EES9_RKNS_12basic_stringIS6_S7_T1_EE, symObjAddr: 0x1ACC, symBinAddr: 0x1000020C4, symSize: 0x4C }
  - { offsetInCU: 0x134FB, offset: 0x134FB, size: 0x8, addend: 0x0, symName: __ZNSt3__1rsB7v160006IcNS_11char_traitsIcEEEERNS_13basic_istreamIT_T0_EES7_RS4_, symObjAddr: 0x27F8, symBinAddr: 0x100002DF0, symSize: 0x190 }
  - { offsetInCU: 0x1357D, offset: 0x1357D, size: 0x8, addend: 0x0, symName: __ZNSt3__1neB7v160006ERKNS_15__list_iteratorINS_4pairIiiEEPvEES6_, symObjAddr: 0x30D0, symBinAddr: 0x1000036C8, symSize: 0x34 }
  - { offsetInCU: 0x135ED, offset: 0x135ED, size: 0x8, addend: 0x0, symName: __ZNSt3__1eqB7v160006ERKNS_15__list_iteratorINS_4pairIiiEEPvEES6_, symObjAddr: 0x32C0, symBinAddr: 0x1000038B8, symSize: 0x30 }
  - { offsetInCU: 0x1362A, offset: 0x1362A, size: 0x8, addend: 0x0, symName: __ZNSt3__125__debug_db_invalidate_allB7v160006INS_10__list_impINS_4pairIiiEENS_9allocatorIS3_EEEEEEvPT_, symObjAddr: 0x3534, symBinAddr: 0x100003B2C, symSize: 0x10 }
  - { offsetInCU: 0x1365B, offset: 0x1365B, size: 0x8, addend: 0x0, symName: __ZNSt3__130__libcpp_is_constant_evaluatedB7v160006Ev, symObjAddr: 0x3688, symBinAddr: 0x100003C80, symSize: 0xC }
  - { offsetInCU: 0x13678, offset: 0x13678, size: 0x8, addend: 0x0, symName: __ZNSt3__119__libcpp_deallocateB7v160006EPvmm, symObjAddr: 0x3694, symBinAddr: 0x100003C8C, symSize: 0x30 }
  - { offsetInCU: 0x136C0, offset: 0x136C0, size: 0x8, addend: 0x0, symName: __ZNSt3__127__do_deallocate_handle_sizeB7v160006IJEEEvPvmDpT_, symObjAddr: 0x36C4, symBinAddr: 0x100003CBC, symSize: 0x28 }
  - { offsetInCU: 0x136FE, offset: 0x136FE, size: 0x8, addend: 0x0, symName: __ZNSt3__124__libcpp_operator_deleteB7v160006IJPvEEEvDpT_, symObjAddr: 0x36EC, symBinAddr: 0x100003CE4, symSize: 0x24 }
  - { offsetInCU: 0x13733, offset: 0x13733, size: 0x8, addend: 0x0, symName: __ZNSt3__19make_pairB7v160006IRiS1_EENS_4pairINS_18__unwrap_ref_decayIT_E4typeENS3_IT0_E4typeEEEOS4_OS7_, symObjAddr: 0x380C, symBinAddr: 0x100003E04, symSize: 0x34 }
  - { offsetInCU: 0x137A0, offset: 0x137A0, size: 0x8, addend: 0x0, symName: __ZNSt3__117__libcpp_allocateB7v160006Emm, symObjAddr: 0x3BB0, symBinAddr: 0x1000041A8, symSize: 0x28 }
  - { offsetInCU: 0x137DD, offset: 0x137DD, size: 0x8, addend: 0x0, symName: __ZNSt3__121__libcpp_operator_newB7v160006IJmEEEPvDpT_, symObjAddr: 0x3BF0, symBinAddr: 0x1000041E8, symSize: 0x24 }
  - { offsetInCU: 0x139C5, offset: 0x139C5, size: 0x8, addend: 0x0, symName: __ZNSt3__17reverseB7v160006INS_11__wrap_iterIPiEEEEvT_S4_, symObjAddr: 0x419C, symBinAddr: 0x100004794, symSize: 0x3C }
  - { offsetInCU: 0x13A04, offset: 0x13A04, size: 0x8, addend: 0x0, symName: __ZNSt3__112__to_addressB7v160006IPiEEPT_S3_, symObjAddr: 0x47E0, symBinAddr: 0x100004DD8, symSize: 0x14 }
  - { offsetInCU: 0x13A39, offset: 0x13A39, size: 0x8, addend: 0x0, symName: __ZNSt3__122__make_exception_guardB7v160006INS_6vectorIiNS_9allocatorIiEEE16__destroy_vectorEEENS_28__exception_guard_exceptionsIT_EES7_, symObjAddr: 0x4A3C, symBinAddr: 0x100005034, symSize: 0x40 }
  - { offsetInCU: 0x13A6E, offset: 0x13A6E, size: 0x8, addend: 0x0, symName: __ZNSt3__119__debug_db_insert_cB7v160006INS_6vectorIiNS_9allocatorIiEEEEEEvPT_, symObjAddr: 0x4AB0, symBinAddr: 0x1000050A8, symSize: 0x10 }
  - { offsetInCU: 0x13A9F, offset: 0x13A9F, size: 0x8, addend: 0x0, symName: __ZNSt3__119__allocate_at_leastB7v160006INS_9allocatorIiEEEENS_19__allocation_resultINS_16allocator_traitsIT_E7pointerEEERS5_m, symObjAddr: 0x4DF0, symBinAddr: 0x1000053E8, symSize: 0x40 }
  - { offsetInCU: 0x13AE2, offset: 0x13AE2, size: 0x8, addend: 0x0, symName: __ZNSt3__13minB7v160006ImEERKT_S3_S3_, symObjAddr: 0x4F2C, symBinAddr: 0x100005524, symSize: 0x2C }
  - { offsetInCU: 0x13D26, offset: 0x13D26, size: 0x8, addend: 0x0, symName: __ZNSt3__13minB7v160006ImNS_6__lessImmEEEERKT_S5_S5_T0_, symObjAddr: 0x4FB8, symBinAddr: 0x1000055B0, symSize: 0x54 }
  - { offsetInCU: 0x13DBB, offset: 0x13DBB, size: 0x8, addend: 0x0, symName: __ZNSt3__120__throw_length_errorB7v160006EPKc, symObjAddr: 0x5094, symBinAddr: 0x10000568C, symSize: 0x64 }
  - { offsetInCU: 0x13DE3, offset: 0x13DE3, size: 0x8, addend: 0x0, symName: __ZNSt3__112__to_addressB7v160006IiEEPT_S2_, symObjAddr: 0x52F4, symBinAddr: 0x1000058EC, symSize: 0x14 }
  - { offsetInCU: 0x13E18, offset: 0x13E18, size: 0x8, addend: 0x0, symName: __ZNSt3__118__debug_db_erase_cB7v160006INS_6vectorIiNS_9allocatorIiEEEEEEvPT_, symObjAddr: 0x562C, symBinAddr: 0x100005C24, symSize: 0x10 }
  - { offsetInCU: 0x13E49, offset: 0x13E49, size: 0x8, addend: 0x0, symName: __ZNSt3__119__allocate_at_leastB7v160006INS_9allocatorImEEEENS_19__allocation_resultINS_16allocator_traitsIT_E7pointerEEERS5_m, symObjAddr: 0x5C0C, symBinAddr: 0x100006204, symSize: 0x40 }
  - { offsetInCU: 0x13EB1, offset: 0x13EB1, size: 0x8, addend: 0x0, symName: __ZNSt3__114__construct_atB7v160006ImJEPmEEPT_S3_DpOT0_, symObjAddr: 0x5CC0, symBinAddr: 0x1000062B8, symSize: 0x20 }
  - { offsetInCU: 0x13F0D, offset: 0x13F0D, size: 0x8, addend: 0x0, symName: __ZNSt3__112__to_addressB7v160006ImEEPT_S2_, symObjAddr: 0x5CE0, symBinAddr: 0x1000062D8, symSize: 0x14 }
  - { offsetInCU: 0x13F42, offset: 0x13F42, size: 0x8, addend: 0x0, symName: __ZNSt3__16fill_nB7v160006INS_6vectorIbNS_9allocatorIbEEEEEEvNS_14__bit_iteratorIT_Lb0EXLi0EEEENS6_9size_typeEb, symObjAddr: 0x5EA0, symBinAddr: 0x100006498, symSize: 0x94 }
  - { offsetInCU: 0x13F94, offset: 0x13F94, size: 0x8, addend: 0x0, symName: __ZNSt3__16fill_nB7v160006IPmmmEET_S2_T0_RKT1_, symObjAddr: 0x6288, symBinAddr: 0x100006880, symSize: 0x44 }
  - { offsetInCU: 0x13FF7, offset: 0x13FF7, size: 0x8, addend: 0x0, symName: __ZNSt3__18__fill_nB7v160006IPmmmEET_S2_T0_RKT1_, symObjAddr: 0x62CC, symBinAddr: 0x1000068C4, symSize: 0x64 }
  - { offsetInCU: 0x1405A, offset: 0x1405A, size: 0x8, addend: 0x0, symName: __ZNSt3__121__convert_to_integralB7v160006Em, symObjAddr: 0x6330, symBinAddr: 0x100006928, symSize: 0x14 }
  - { offsetInCU: 0x14086, offset: 0x14086, size: 0x8, addend: 0x0, symName: __ZNSt3__16fill_nB7v160006IPmmiEET_S2_T0_RKT1_, symObjAddr: 0x6374, symBinAddr: 0x10000696C, symSize: 0x44 }
  - { offsetInCU: 0x140E9, offset: 0x140E9, size: 0x8, addend: 0x0, symName: __ZNSt3__18__fill_nB7v160006IPmmiEET_S2_T0_RKT1_, symObjAddr: 0x63B8, symBinAddr: 0x1000069B0, symSize: 0x64 }
  - { offsetInCU: 0x1414C, offset: 0x1414C, size: 0x8, addend: 0x0, symName: __ZNSt3__13maxB7v160006ImEERKT_S3_S3_, symObjAddr: 0x73E8, symBinAddr: 0x1000079E0, symSize: 0x2C }
  - { offsetInCU: 0x14564, offset: 0x14564, size: 0x8, addend: 0x0, symName: __ZNSt3__14swapB7v160006IPPiEEvRT_S4_, symObjAddr: 0x7A48, symBinAddr: 0x100008040, symSize: 0x3C }
  - { offsetInCU: 0x145B5, offset: 0x145B5, size: 0x8, addend: 0x0, symName: __ZNSt3__14moveB7v160006IPPiS2_EET0_T_S4_S3_, symObjAddr: 0x7B78, symBinAddr: 0x100008170, symSize: 0x40 }
  - { offsetInCU: 0x1460F, offset: 0x1460F, size: 0x8, addend: 0x0, symName: __ZNSt3__16__moveB7v160006INS_17_ClassicAlgPolicyEPPiS3_S3_EENS_4pairIT0_T2_EES5_T1_S6_, symObjAddr: 0x7D24, symBinAddr: 0x10000831C, symSize: 0x44 }
  - { offsetInCU: 0x1467B, offset: 0x1467B, size: 0x8, addend: 0x0, symName: __ZNSt3__123__dispatch_copy_or_moveB7v160006INS_17_ClassicAlgPolicyENS_11__move_loopIS1_EENS_14__move_trivialEPPiS6_S6_EENS_4pairIT2_T4_EES8_T3_S9_, symObjAddr: 0x7D68, symBinAddr: 0x100008360, symSize: 0x54 }
  - { offsetInCU: 0x146F9, offset: 0x146F9, size: 0x8, addend: 0x0, symName: __ZNSt3__121__unwrap_and_dispatchB7v160006INS_10__overloadINS_11__move_loopINS_17_ClassicAlgPolicyEEENS_14__move_trivialEEEPPiS8_S8_Li0EEENS_4pairIT0_T2_EESA_T1_SB_, symObjAddr: 0x7DBC, symBinAddr: 0x1000083B4, symSize: 0xB4 }
  - { offsetInCU: 0x14787, offset: 0x14787, size: 0x8, addend: 0x0, symName: __ZNSt3__114__unwrap_rangeB7v160006IPPiS2_EENS_4pairIT0_S4_EET_S6_, symObjAddr: 0x7E70, symBinAddr: 0x100008468, symSize: 0x60 }
  - { offsetInCU: 0x1493E, offset: 0x1493E, size: 0x8, addend: 0x0, symName: __ZNSt3__113__unwrap_iterB7v160006IPPiNS_18__unwrap_iter_implIS2_Lb1EEELi0EEEDTclsrT0_8__unwrapclsr3stdE7declvalIT_EEEES6_, symObjAddr: 0x7F18, symBinAddr: 0x100008510, symSize: 0x24 }
  - { offsetInCU: 0x14982, offset: 0x14982, size: 0x8, addend: 0x0, symName: __ZNSt3__19make_pairB7v160006IPPiS2_EENS_4pairINS_18__unwrap_ref_decayIT_E4typeENS4_IT0_E4typeEEEOS5_OS8_, symObjAddr: 0x7F3C, symBinAddr: 0x100008534, symSize: 0x38 }
  - { offsetInCU: 0x149D1, offset: 0x149D1, size: 0x8, addend: 0x0, symName: __ZNSt3__114__rewrap_rangeB7v160006IPPiS2_EET_S3_T0_, symObjAddr: 0x7F74, symBinAddr: 0x10000856C, symSize: 0x2C }
  - { offsetInCU: 0x14A1D, offset: 0x14A1D, size: 0x8, addend: 0x0, symName: __ZNSt3__113__rewrap_iterB7v160006IPPiS2_NS_18__unwrap_iter_implIS2_Lb1EEEEET_S5_T0_, symObjAddr: 0x7FA0, symBinAddr: 0x100008598, symSize: 0x50 }
  - { offsetInCU: 0x14A72, offset: 0x14A72, size: 0x8, addend: 0x0, symName: __ZNSt3__119__copy_trivial_implB7v160006IPiS1_EENS_4pairIPT_PT0_EES4_S4_S6_, symObjAddr: 0x7FF0, symBinAddr: 0x1000085E8, symSize: 0x84 }
  - { offsetInCU: 0x14ADA, offset: 0x14ADA, size: 0x8, addend: 0x0, symName: __ZNSt3__19make_pairB7v160006IRPPiS2_EENS_4pairINS_18__unwrap_ref_decayIT_E4typeENS5_IT0_E4typeEEEOS6_OS9_, symObjAddr: 0x8074, symBinAddr: 0x10000866C, symSize: 0x38 }
  - { offsetInCU: 0x14B7C, offset: 0x14B7C, size: 0x8, addend: 0x0, symName: __ZNSt3__18distanceB7v160006INS_13move_iteratorIPPiEEEENS_15iterator_traitsIT_E15difference_typeES6_S6_, symObjAddr: 0x8190, symBinAddr: 0x100008788, symSize: 0x3C }
  - { offsetInCU: 0x14BBF, offset: 0x14BBF, size: 0x8, addend: 0x0, symName: __ZNSt3__110__distanceB7v160006INS_13move_iteratorIPPiEEEENS_15iterator_traitsIT_E15difference_typeES6_S6_NS_26random_access_iterator_tagE, symObjAddr: 0x82C8, symBinAddr: 0x1000088C0, symSize: 0x30 }
  - { offsetInCU: 0x14C0C, offset: 0x14C0C, size: 0x8, addend: 0x0, symName: __ZNSt3__1miB7v160006IPPiS2_EENS_13move_iteratorIT_E15difference_typeERKS5_RKNS3_IT0_EE, symObjAddr: 0x82F8, symBinAddr: 0x1000088F0, symSize: 0x48 }
  - { offsetInCU: 0x14C5B, offset: 0x14C5B, size: 0x8, addend: 0x0, symName: __ZNSt3__113move_backwardB7v160006IPPiS2_EET0_T_S4_S3_, symObjAddr: 0x846C, symBinAddr: 0x100008A64, symSize: 0x40 }
  - { offsetInCU: 0x14CB5, offset: 0x14CB5, size: 0x8, addend: 0x0, symName: __ZNSt3__115__move_backwardB7v160006INS_17_ClassicAlgPolicyEPPiS3_S3_EENS_4pairIT0_T2_EES5_T1_S6_, symObjAddr: 0x84AC, symBinAddr: 0x100008AA4, symSize: 0x44 }
  - { offsetInCU: 0x14D21, offset: 0x14D21, size: 0x8, addend: 0x0, symName: __ZNSt3__123__dispatch_copy_or_moveB7v160006INS_17_ClassicAlgPolicyENS_20__move_backward_loopIS1_EENS_23__move_backward_trivialEPPiS6_S6_EENS_4pairIT2_T4_EES8_T3_S9_, symObjAddr: 0x84F0, symBinAddr: 0x100008AE8, symSize: 0x54 }
  - { offsetInCU: 0x14D9F, offset: 0x14D9F, size: 0x8, addend: 0x0, symName: __ZNSt3__121__unwrap_and_dispatchB7v160006INS_10__overloadINS_20__move_backward_loopINS_17_ClassicAlgPolicyEEENS_23__move_backward_trivialEEEPPiS8_S8_Li0EEENS_4pairIT0_T2_EESA_T1_SB_, symObjAddr: 0x8544, symBinAddr: 0x100008B3C, symSize: 0xB4 }
  - { offsetInCU: 0x14EAF, offset: 0x14EAF, size: 0x8, addend: 0x0, symName: __ZNSt3__128__copy_backward_trivial_implB7v160006IPiS1_EENS_4pairIPT_PT0_EES4_S4_S6_, symObjAddr: 0x8640, symBinAddr: 0x100008C38, symSize: 0x94 }
  - { offsetInCU: 0x14F17, offset: 0x14F17, size: 0x8, addend: 0x0, symName: __ZNSt3__19make_pairB7v160006IRPPiS3_EENS_4pairINS_18__unwrap_ref_decayIT_E4typeENS5_IT0_E4typeEEEOS6_OS9_, symObjAddr: 0x86D4, symBinAddr: 0x100008CCC, symSize: 0x38 }
  - { offsetInCU: 0x14F66, offset: 0x14F66, size: 0x8, addend: 0x0, symName: __ZNSt3__13maxB7v160006ImNS_6__lessImmEEEERKT_S5_S5_T0_, symObjAddr: 0x870C, symBinAddr: 0x100008D04, symSize: 0x54 }
  - { offsetInCU: 0x14FC0, offset: 0x14FC0, size: 0x8, addend: 0x0, symName: __ZNSt3__119__allocate_at_leastB7v160006INS_9allocatorIPiEEEENS_19__allocation_resultINS_16allocator_traitsIT_E7pointerEEERS6_m, symObjAddr: 0x8870, symBinAddr: 0x100008E68, symSize: 0x40 }
  - { offsetInCU: 0x15003, offset: 0x15003, size: 0x8, addend: 0x0, symName: __ZNSt3__19__reverseB7v160006INS_17_ClassicAlgPolicyENS_11__wrap_iterIPiEES4_EEvT0_T1_, symObjAddr: 0x91C0, symBinAddr: 0x1000097B8, symSize: 0x3C }
  - { offsetInCU: 0x15054, offset: 0x15054, size: 0x8, addend: 0x0, symName: __ZNSt3__114__reverse_implB7v160006INS_17_ClassicAlgPolicyENS_11__wrap_iterIPiEEEEvT0_S5_NS_26random_access_iterator_tagE, symObjAddr: 0x91FC, symBinAddr: 0x1000097F4, symSize: 0x7C }
  - { offsetInCU: 0x150A6, offset: 0x150A6, size: 0x8, addend: 0x0, symName: __ZNSt3__1ltB7v160006IPiEEbRKNS_11__wrap_iterIT_EES6_, symObjAddr: 0x9278, symBinAddr: 0x100009870, symSize: 0x48 }
  - { offsetInCU: 0x151DE, offset: 0x151DE, size: 0x8, addend: 0x0, symName: __ZNSt3__19iter_swapB7v160006INS_11__wrap_iterIPiEES3_EEvT_T0_, symObjAddr: 0x933C, symBinAddr: 0x100009934, symSize: 0x50 }
  - { offsetInCU: 0x15226, offset: 0x15226, size: 0x8, addend: 0x0, symName: __ZNSt3__14swapB7v160006IiEEvRT_S2_, symObjAddr: 0x938C, symBinAddr: 0x100009984, symSize: 0x3C }
  - { offsetInCU: 0x15277, offset: 0x15277, size: 0x8, addend: 0x0, symName: __ZNSt3__125__debug_db_invalidate_allB7v160006INS_6vectorIbNS_9allocatorIbEEE16__destroy_vectorEEEvPT_, symObjAddr: 0x9510, symBinAddr: 0x100009B08, symSize: 0x10 }
  - { offsetInCU: 0x152A8, offset: 0x152A8, size: 0x8, addend: 0x0, symName: __ZNSt3__1neB7v160006ERKNS_16__deque_iteratorIiPiRiPS1_lLl1024EEES6_, symObjAddr: 0x989C, symBinAddr: 0x100009E94, symSize: 0x34 }
  - { offsetInCU: 0x152E5, offset: 0x152E5, size: 0x8, addend: 0x0, symName: __ZNSt3__1eqB7v160006ERKNS_16__deque_iteratorIiPiRiPS1_lLl1024EEES6_, symObjAddr: 0x9940, symBinAddr: 0x100009F38, symSize: 0x30 }
  - { offsetInCU: 0x15322, offset: 0x15322, size: 0x8, addend: 0x0, symName: __ZNSt3__119__debug_db_insert_cB7v160006INS_4listINS_4pairIiiEENS_9allocatorIS3_EEEEEEvPT_, symObjAddr: 0x9CC8, symBinAddr: 0x10000A2C0, symSize: 0x10 }
  - { offsetInCU: 0x15353, offset: 0x15353, size: 0x8, addend: 0x0, symName: __ZNSt3__118__debug_db_erase_cB7v160006INS_10__list_impINS_4pairIiiEENS_9allocatorIS3_EEEEEEvPT_, symObjAddr: 0x9E6C, symBinAddr: 0x10000A464, symSize: 0x10 }
  - { offsetInCU: 0x15588, offset: 0x15588, size: 0x8, addend: 0x0, symName: __ZNSt3__19make_pairB7v160006IiRiEENS_4pairINS_18__unwrap_ref_decayIT_E4typeENS3_IT0_E4typeEEEOS4_OS7_, symObjAddr: 0x9F2C, symBinAddr: 0x10000A524, symSize: 0x34 }
  - { offsetInCU: 0x155D7, offset: 0x155D7, size: 0x8, addend: 0x0, symName: __ZNSt3__119__debug_db_insert_cB7v160006INS_6vectorINS_4pairIiiEENS_9allocatorIS3_EEEEEEvPT_, symObjAddr: 0xA108, symBinAddr: 0x10000A700, symSize: 0x10 }
  - { offsetInCU: 0x15608, offset: 0x15608, size: 0x8, addend: 0x0, symName: __ZNSt3__19push_heapB7v160006INS_11__wrap_iterIPNS_4pairIiiEEEENS_7greaterIS3_EEEEvT_S8_T0_, symObjAddr: 0xA24C, symBinAddr: 0x10000A844, symSize: 0x40 }
  - { offsetInCU: 0x1565E, offset: 0x1565E, size: 0x8, addend: 0x0, symName: __ZNSt3__112__to_addressB7v160006INS_4pairIiiEEEEPT_S4_, symObjAddr: 0xA55C, symBinAddr: 0x10000AB54, symSize: 0x14 }
  - { offsetInCU: 0x15693, offset: 0x15693, size: 0x8, addend: 0x0, symName: __ZNSt3__119__allocate_at_leastB7v160006INS_9allocatorINS_4pairIiiEEEEEENS_19__allocation_resultINS_16allocator_traitsIT_E7pointerEEERS7_m, symObjAddr: 0xAB9C, symBinAddr: 0x10000B194, symSize: 0x40 }
  - { offsetInCU: 0x156D6, offset: 0x156D6, size: 0x8, addend: 0x0, symName: __ZNSt3__142__uninitialized_allocator_move_if_noexceptB7v160006INS_9allocatorINS_4pairIiiEEEENS_16reverse_iteratorIPS3_EES7_S7_EET2_RT_T0_T1_S8_, symObjAddr: 0xAE34, symBinAddr: 0x10000B42C, symSize: 0x134 }
  - { offsetInCU: 0x15776, offset: 0x15776, size: 0x8, addend: 0x0, symName: __ZNSt3__14swapB7v160006IPNS_4pairIiiEEEEvRT_S5_, symObjAddr: 0xAFB4, symBinAddr: 0x10000B5AC, symSize: 0x3C }
  - { offsetInCU: 0x157C7, offset: 0x157C7, size: 0x8, addend: 0x0, symName: __ZNSt3__125__debug_db_invalidate_allB7v160006INS_6vectorINS_4pairIiiEENS_9allocatorIS3_EEEEEEvPT_, symObjAddr: 0xB09C, symBinAddr: 0x10000B694, symSize: 0x10 }
  - { offsetInCU: 0x157F8, offset: 0x157F8, size: 0x8, addend: 0x0, symName: __ZNSt3__122__make_exception_guardB7v160006INS_29_AllocatorDestroyRangeReverseINS_9allocatorINS_4pairIiiEEEENS_16reverse_iteratorIPS4_EEEEEENS_28__exception_guard_exceptionsIT_EESB_, symObjAddr: 0xB0F4, symBinAddr: 0x10000B6EC, symSize: 0x4C }
  - { offsetInCU: 0x1582E, offset: 0x1582E, size: 0x8, addend: 0x0, symName: __ZNSt3__1neB7v160006IPNS_4pairIiiEES3_EEbRKNS_16reverse_iteratorIT_EERKNS4_IT0_EE, symObjAddr: 0xB184, symBinAddr: 0x10000B77C, symSize: 0x48 }
  - { offsetInCU: 0x1587A, offset: 0x1587A, size: 0x8, addend: 0x0, symName: __ZNSt3__112__to_addressB7v160006INS_16reverse_iteratorIPNS_4pairIiiEEEEvEENS_5decayIDTclsr19__to_address_helperIT_EE6__callclsr3stdE7declvalIRKS7_EEEEE4typeES9_, symObjAddr: 0xB200, symBinAddr: 0x10000B7F8, symSize: 0x24 }
  - { offsetInCU: 0x158D9, offset: 0x158D9, size: 0x8, addend: 0x0, symName: __ZNSt3__119__allocator_destroyB7v160006INS_9allocatorINS_4pairIiiEEEENS_16reverse_iteratorINS5_IPS3_EEEES8_EEvRT_T0_T1_, symObjAddr: 0xB4E4, symBinAddr: 0x10000BADC, symSize: 0x70 }
  - { offsetInCU: 0x1593E, offset: 0x1593E, size: 0x8, addend: 0x0, symName: __ZNSt3__1neB7v160006INS_16reverse_iteratorIPNS_4pairIiiEEEES5_EEbRKNS1_IT_EERKNS1_IT0_EE, symObjAddr: 0xB590, symBinAddr: 0x10000BB88, symSize: 0x60 }
  - { offsetInCU: 0x1598A, offset: 0x1598A, size: 0x8, addend: 0x0, symName: __ZNSt3__112__to_addressB7v160006INS_16reverse_iteratorINS1_IPNS_4pairIiiEEEEEEvEENS_5decayIDTclsr19__to_address_helperIT_EE6__callclsr3stdE7declvalIRKS8_EEEEE4typeESA_, symObjAddr: 0xB61C, symBinAddr: 0x10000BC14, symSize: 0x24 }
  - { offsetInCU: 0x159E9, offset: 0x159E9, size: 0x8, addend: 0x0, symName: __ZNSt3__111__push_heapB7v160006INS_17_ClassicAlgPolicyENS_11__wrap_iterIPNS_4pairIiiEEEENS_7greaterIS4_EEEEvT0_S9_RT1_, symObjAddr: 0xBA58, symBinAddr: 0x10000C050, symSize: 0x5C }
  - { offsetInCU: 0x15A56, offset: 0x15A56, size: 0x8, addend: 0x0, symName: __ZNSt3__1miB7v160006IPNS_4pairIiiEES3_EENS_11__wrap_iterIT_E15difference_typeERKS6_RKNS4_IT0_EE, symObjAddr: 0xBAB4, symBinAddr: 0x10000C0AC, symSize: 0x48 }
  - { offsetInCU: 0x15AA2, offset: 0x15AA2, size: 0x8, addend: 0x0, symName: __ZNSt3__19__sift_upB7v160006INS_17_ClassicAlgPolicyERNS_7greaterINS_4pairIiiEEEENS_11__wrap_iterIPS4_EEEEvT1_SA_OT0_NS_15iterator_traitsISA_E15difference_typeE, symObjAddr: 0xBAFC, symBinAddr: 0x10000C0F4, symSize: 0x15C }
  - { offsetInCU: 0x15B76, offset: 0x15B76, size: 0x8, addend: 0x0, symName: __ZNSt3__1gtB7v160006IiiEEbRKNS_4pairIT_T0_EES6_, symObjAddr: 0xBD98, symBinAddr: 0x10000C390, symSize: 0x30 }
  - { offsetInCU: 0x15BC5, offset: 0x15BC5, size: 0x8, addend: 0x0, symName: __ZNSt3__1ltB7v160006IiiEEbRKNS_4pairIT_T0_EES6_, symObjAddr: 0xBDC8, symBinAddr: 0x10000C3C0, symSize: 0x98 }
  - { offsetInCU: 0x15C14, offset: 0x15C14, size: 0x8, addend: 0x0, symName: __ZNSt3__18pop_heapB7v160006INS_11__wrap_iterIPNS_4pairIiiEEEENS_7greaterIS3_EEEEvT_S8_T0_, symObjAddr: 0xBF38, symBinAddr: 0x10000C530, symSize: 0x58 }
  - { offsetInCU: 0x15C78, offset: 0x15C78, size: 0x8, addend: 0x0, symName: __ZNSt3__110__pop_heapB7v160006INS_17_ClassicAlgPolicyENS_7greaterINS_4pairIiiEEEENS_11__wrap_iterIPS4_EEEEvT1_S9_RT0_NS_15iterator_traitsIS9_E15difference_typeE, symObjAddr: 0xBFBC, symBinAddr: 0x10000C5B4, symSize: 0x128 }
  - { offsetInCU: 0x15D28, offset: 0x15D28, size: 0x8, addend: 0x0, symName: __ZNSt3__1eqB7v160006IPNS_4pairIiiEEEEbRKNS_11__wrap_iterIT_EES8_, symObjAddr: 0xC22C, symBinAddr: 0x10000C824, symSize: 0x48 }
  - { offsetInCU: 0x15D6B, offset: 0x15D6B, size: 0x8, addend: 0x0, symName: __ZNSt3__118__debug_db_erase_cB7v160006INS_6vectorINS_4pairIiiEENS_9allocatorIS3_EEEEEEvPT_, symObjAddr: 0xC608, symBinAddr: 0x10000CC00, symSize: 0x10 }
  - { offsetInCU: 0x15D9C, offset: 0x15D9C, size: 0x8, addend: 0x0, symName: __ZNSt3__118__debug_db_erase_cB7v160006INS_10__list_impI5CoinsNS_9allocatorIS2_EEEEEEvPT_, symObjAddr: 0xC7A0, symBinAddr: 0x10000CD98, symSize: 0x10 }
  - { offsetInCU: 0x15DCD, offset: 0x15DCD, size: 0x8, addend: 0x0, symName: __ZNSt3__125__debug_db_invalidate_allB7v160006INS_10__list_impI5CoinsNS_9allocatorIS2_EEEEEEvPT_, symObjAddr: 0xC934, symBinAddr: 0x10000CF2C, symSize: 0x10 }
  - { offsetInCU: 0x16320, offset: 0x16320, size: 0x8, addend: 0x0, symName: __ZNSt3__14swapB7v160006IPP8ObstacleEEvRT_S5_, symObjAddr: 0xE1CC, symBinAddr: 0x10000E7C4, symSize: 0x3C }
  - { offsetInCU: 0x16371, offset: 0x16371, size: 0x8, addend: 0x0, symName: __ZNSt3__14moveB7v160006IPP8ObstacleS3_EET0_T_S5_S4_, symObjAddr: 0xE2FC, symBinAddr: 0x10000E8F4, symSize: 0x40 }
  - { offsetInCU: 0x163CB, offset: 0x163CB, size: 0x8, addend: 0x0, symName: __ZNSt3__112__to_addressB7v160006IP8ObstacleEEPT_S4_, symObjAddr: 0xE4A8, symBinAddr: 0x10000EAA0, symSize: 0x14 }
  - { offsetInCU: 0x16400, offset: 0x16400, size: 0x8, addend: 0x0, symName: __ZNSt3__16__moveB7v160006INS_17_ClassicAlgPolicyEPP8ObstacleS4_S4_EENS_4pairIT0_T2_EES6_T1_S7_, symObjAddr: 0xE4BC, symBinAddr: 0x10000EAB4, symSize: 0x44 }
  - { offsetInCU: 0x1646C, offset: 0x1646C, size: 0x8, addend: 0x0, symName: __ZNSt3__123__dispatch_copy_or_moveB7v160006INS_17_ClassicAlgPolicyENS_11__move_loopIS1_EENS_14__move_trivialEPP8ObstacleS7_S7_EENS_4pairIT2_T4_EES9_T3_SA_, symObjAddr: 0xE500, symBinAddr: 0x10000EAF8, symSize: 0x54 }
  - { offsetInCU: 0x164EA, offset: 0x164EA, size: 0x8, addend: 0x0, symName: __ZNSt3__121__unwrap_and_dispatchB7v160006INS_10__overloadINS_11__move_loopINS_17_ClassicAlgPolicyEEENS_14__move_trivialEEEPP8ObstacleS9_S9_Li0EEENS_4pairIT0_T2_EESB_T1_SC_, symObjAddr: 0xE554, symBinAddr: 0x10000EB4C, symSize: 0xB4 }
  - { offsetInCU: 0x16578, offset: 0x16578, size: 0x8, addend: 0x0, symName: __ZNSt3__114__unwrap_rangeB7v160006IPP8ObstacleS3_EENS_4pairIT0_S5_EET_S7_, symObjAddr: 0xE608, symBinAddr: 0x10000EC00, symSize: 0x60 }
  - { offsetInCU: 0x16671, offset: 0x16671, size: 0x8, addend: 0x0, symName: __ZNSt3__113__unwrap_iterB7v160006IPP8ObstacleNS_18__unwrap_iter_implIS3_Lb1EEELi0EEEDTclsrT0_8__unwrapclsr3stdE7declvalIT_EEEES7_, symObjAddr: 0xE6B0, symBinAddr: 0x10000ECA8, symSize: 0x24 }
  - { offsetInCU: 0x166B5, offset: 0x166B5, size: 0x8, addend: 0x0, symName: __ZNSt3__19make_pairB7v160006IPP8ObstacleS3_EENS_4pairINS_18__unwrap_ref_decayIT_E4typeENS5_IT0_E4typeEEEOS6_OS9_, symObjAddr: 0xE6D4, symBinAddr: 0x10000ECCC, symSize: 0x38 }
  - { offsetInCU: 0x16704, offset: 0x16704, size: 0x8, addend: 0x0, symName: __ZNSt3__114__rewrap_rangeB7v160006IPP8ObstacleS3_EET_S4_T0_, symObjAddr: 0xE70C, symBinAddr: 0x10000ED04, symSize: 0x2C }
  - { offsetInCU: 0x16750, offset: 0x16750, size: 0x8, addend: 0x0, symName: __ZNSt3__113__rewrap_iterB7v160006IPP8ObstacleS3_NS_18__unwrap_iter_implIS3_Lb1EEEEET_S6_T0_, symObjAddr: 0xE738, symBinAddr: 0x10000ED30, symSize: 0x50 }
  - { offsetInCU: 0x167A5, offset: 0x167A5, size: 0x8, addend: 0x0, symName: __ZNSt3__119__copy_trivial_implB7v160006IP8ObstacleS2_EENS_4pairIPT_PT0_EES5_S5_S7_, symObjAddr: 0xE788, symBinAddr: 0x10000ED80, symSize: 0x84 }
  - { offsetInCU: 0x1680D, offset: 0x1680D, size: 0x8, addend: 0x0, symName: __ZNSt3__19make_pairB7v160006IRPP8ObstacleS3_EENS_4pairINS_18__unwrap_ref_decayIT_E4typeENS6_IT0_E4typeEEEOS7_OSA_, symObjAddr: 0xE80C, symBinAddr: 0x10000EE04, symSize: 0x38 }
  - { offsetInCU: 0x168AF, offset: 0x168AF, size: 0x8, addend: 0x0, symName: __ZNSt3__18distanceB7v160006INS_13move_iteratorIPP8ObstacleEEEENS_15iterator_traitsIT_E15difference_typeES7_S7_, symObjAddr: 0xE928, symBinAddr: 0x10000EF20, symSize: 0x3C }
  - { offsetInCU: 0x168F2, offset: 0x168F2, size: 0x8, addend: 0x0, symName: __ZNSt3__110__distanceB7v160006INS_13move_iteratorIPP8ObstacleEEEENS_15iterator_traitsIT_E15difference_typeES7_S7_NS_26random_access_iterator_tagE, symObjAddr: 0xEA60, symBinAddr: 0x10000F058, symSize: 0x30 }
  - { offsetInCU: 0x1693F, offset: 0x1693F, size: 0x8, addend: 0x0, symName: __ZNSt3__1miB7v160006IPP8ObstacleS3_EENS_13move_iteratorIT_E15difference_typeERKS6_RKNS4_IT0_EE, symObjAddr: 0xEA90, symBinAddr: 0x10000F088, symSize: 0x48 }
  - { offsetInCU: 0x1698E, offset: 0x1698E, size: 0x8, addend: 0x0, symName: __ZNSt3__113move_backwardB7v160006IPP8ObstacleS3_EET0_T_S5_S4_, symObjAddr: 0xED20, symBinAddr: 0x10000F318, symSize: 0x40 }
  - { offsetInCU: 0x169E8, offset: 0x169E8, size: 0x8, addend: 0x0, symName: __ZNSt3__115__move_backwardB7v160006INS_17_ClassicAlgPolicyEPP8ObstacleS4_S4_EENS_4pairIT0_T2_EES6_T1_S7_, symObjAddr: 0xED60, symBinAddr: 0x10000F358, symSize: 0x44 }
  - { offsetInCU: 0x16A54, offset: 0x16A54, size: 0x8, addend: 0x0, symName: __ZNSt3__123__dispatch_copy_or_moveB7v160006INS_17_ClassicAlgPolicyENS_20__move_backward_loopIS1_EENS_23__move_backward_trivialEPP8ObstacleS7_S7_EENS_4pairIT2_T4_EES9_T3_SA_, symObjAddr: 0xEDA4, symBinAddr: 0x10000F39C, symSize: 0x54 }
  - { offsetInCU: 0x16AD2, offset: 0x16AD2, size: 0x8, addend: 0x0, symName: __ZNSt3__121__unwrap_and_dispatchB7v160006INS_10__overloadINS_20__move_backward_loopINS_17_ClassicAlgPolicyEEENS_23__move_backward_trivialEEEPP8ObstacleS9_S9_Li0EEENS_4pairIT0_T2_EESB_T1_SC_, symObjAddr: 0xEDF8, symBinAddr: 0x10000F3F0, symSize: 0xB4 }
  - { offsetInCU: 0x16B60, offset: 0x16B60, size: 0x8, addend: 0x0, symName: __ZNSt3__128__copy_backward_trivial_implB7v160006IP8ObstacleS2_EENS_4pairIPT_PT0_EES5_S5_S7_, symObjAddr: 0xEEF4, symBinAddr: 0x10000F4EC, symSize: 0x94 }
  - { offsetInCU: 0x16BC8, offset: 0x16BC8, size: 0x8, addend: 0x0, symName: __ZNSt3__19make_pairB7v160006IRPP8ObstacleS4_EENS_4pairINS_18__unwrap_ref_decayIT_E4typeENS6_IT0_E4typeEEEOS7_OSA_, symObjAddr: 0xEF88, symBinAddr: 0x10000F580, symSize: 0x38 }
  - { offsetInCU: 0x16C17, offset: 0x16C17, size: 0x8, addend: 0x0, symName: __ZNSt3__119__allocate_at_leastB7v160006INS_9allocatorIP8ObstacleEEEENS_19__allocation_resultINS_16allocator_traitsIT_E7pointerEEERS7_m, symObjAddr: 0xF108, symBinAddr: 0x10000F700, symSize: 0x40 }
  - { offsetInCU: 0x16C5A, offset: 0x16C5A, size: 0x8, addend: 0x0, symName: __ZNSt3__1neB7v160006ERKNS_16__deque_iteratorI8ObstaclePS1_RS1_PS2_lLl512EEES7_, symObjAddr: 0x1009C, symBinAddr: 0x100010694, symSize: 0x34 }
  - { offsetInCU: 0x16C97, offset: 0x16C97, size: 0x8, addend: 0x0, symName: __ZNSt3__1eqB7v160006ERKNS_16__deque_iteratorI8ObstaclePS1_RS1_PS2_lLl512EEES7_, symObjAddr: 0x1016C, symBinAddr: 0x100010764, symSize: 0x30 }
  - { offsetInCU: 0x16CD4, offset: 0x16CD4, size: 0x8, addend: 0x0, symName: __ZNSt3__118__debug_db_erase_cB7v160006INS_10__list_impI8ObstacleNS_9allocatorIS2_EEEEEEvPT_, symObjAddr: 0x10474, symBinAddr: 0x100010A6C, symSize: 0x10 }
  - { offsetInCU: 0x16D05, offset: 0x16D05, size: 0x8, addend: 0x0, symName: __ZNSt3__125__debug_db_invalidate_allB7v160006INS_10__list_impI8ObstacleNS_9allocatorIS2_EEEEEEvPT_, symObjAddr: 0x10504, symBinAddr: 0x100010AFC, symSize: 0x10 }
  - { offsetInCU: 0x16D36, offset: 0x16D36, size: 0x8, addend: 0x0, symName: __ZNSt3__142__uninitialized_allocator_move_if_noexceptB7v160006INS_9allocatorIiEENS_16reverse_iteratorIPiEES5_ivEET1_RT_T0_S9_S6_, symObjAddr: 0x10BDC, symBinAddr: 0x1000111D4, symSize: 0xE8 }
  - { offsetInCU: 0x16DB3, offset: 0x16DB3, size: 0x8, addend: 0x0, symName: __ZNSt3__14swapB7v160006IPiEEvRT_S3_, symObjAddr: 0x10D10, symBinAddr: 0x100011308, symSize: 0x3C }
  - { offsetInCU: 0x16E04, offset: 0x16E04, size: 0x8, addend: 0x0, symName: __ZNSt3__125__debug_db_invalidate_allB7v160006INS_6vectorIiNS_9allocatorIiEEEEEEvPT_, symObjAddr: 0x10D4C, symBinAddr: 0x100011344, symSize: 0x10 }
  - { offsetInCU: 0x16E35, offset: 0x16E35, size: 0x8, addend: 0x0, symName: __ZNSt3__1neB7v160006IPiS1_EEbRKNS_16reverse_iteratorIT_EERKNS2_IT0_EE, symObjAddr: 0x10D5C, symBinAddr: 0x100011354, symSize: 0x48 }
  - { offsetInCU: 0x16EA6, offset: 0x16EA6, size: 0x8, addend: 0x0, symName: __ZNSt3__114__construct_atB7v160006IiJiEPiEEPT_S3_DpOT0_, symObjAddr: 0x10DA4, symBinAddr: 0x10001139C, symSize: 0x2C }
  - { offsetInCU: 0x16F16, offset: 0x16F16, size: 0x8, addend: 0x0, symName: __ZNSt3__112__to_addressB7v160006INS_16reverse_iteratorIPiEEvEENS_5decayIDTclsr19__to_address_helperIT_EE6__callclsr3stdE7declvalIRKS5_EEEEE4typeES7_, symObjAddr: 0x10DD0, symBinAddr: 0x1000113C8, symSize: 0x24 }
  - { offsetInCU: 0x16F4C, offset: 0x16F4C, size: 0x8, addend: 0x0, symName: __ZNSt3__14moveB7v160006INS_16reverse_iteratorIPiEES3_EET0_T_S5_S4_, symObjAddr: 0x10E3C, symBinAddr: 0x100011434, symSize: 0x78 }
  - { offsetInCU: 0x16FCF, offset: 0x16FCF, size: 0x8, addend: 0x0, symName: __ZNSt3__16__moveB7v160006INS_17_ClassicAlgPolicyENS_16reverse_iteratorIPiEES4_S4_EENS_4pairIT0_T2_EES6_T1_S7_, symObjAddr: 0x10F24, symBinAddr: 0x10001151C, symSize: 0x64 }
  - { offsetInCU: 0x1703B, offset: 0x1703B, size: 0x8, addend: 0x0, symName: __ZNSt3__123__dispatch_copy_or_moveB7v160006INS_17_ClassicAlgPolicyENS_11__move_loopIS1_EENS_14__move_trivialENS_16reverse_iteratorIPiEES7_S7_EENS_4pairIT2_T4_EES9_T3_SA_, symObjAddr: 0x10F88, symBinAddr: 0x100011580, symSize: 0x7C }
  - { offsetInCU: 0x170B9, offset: 0x170B9, size: 0x8, addend: 0x0, symName: __ZNSt3__121__unwrap_and_dispatchB7v160006INS_10__overloadINS_11__move_loopINS_17_ClassicAlgPolicyEEENS_14__move_trivialEEENS_16reverse_iteratorIPiEES9_S9_Li0EEENS_4pairIT0_T2_EESB_T1_SC_, symObjAddr: 0x11004, symBinAddr: 0x1000115FC, symSize: 0x12C }
  - { offsetInCU: 0x17149, offset: 0x17149, size: 0x8, addend: 0x0, symName: __ZNSt3__114__unwrap_rangeB7v160006INS_16reverse_iteratorIPiEES3_EENS_4pairIT0_S5_EET_S7_, symObjAddr: 0x11130, symBinAddr: 0x100011728, symSize: 0x84 }
  - { offsetInCU: 0x17294, offset: 0x17294, size: 0x8, addend: 0x0, symName: __ZNSt3__113__unwrap_iterB7v160006INS_16reverse_iteratorIPiEENS_18__unwrap_iter_implIS3_Lb0EEELi0EEEDTclsrT0_8__unwrapclsr3stdE7declvalIT_EEEES7_, symObjAddr: 0x11254, symBinAddr: 0x10001184C, symSize: 0x44 }
  - { offsetInCU: 0x172D8, offset: 0x172D8, size: 0x8, addend: 0x0, symName: __ZNSt3__19make_pairB7v160006INS_16reverse_iteratorIPiEES3_EENS_4pairINS_18__unwrap_ref_decayIT_E4typeENS5_IT0_E4typeEEEOS6_OS9_, symObjAddr: 0x11298, symBinAddr: 0x100011890, symSize: 0x38 }
  - { offsetInCU: 0x17327, offset: 0x17327, size: 0x8, addend: 0x0, symName: __ZNSt3__114__rewrap_rangeB7v160006INS_16reverse_iteratorIPiEES3_EET_S4_T0_, symObjAddr: 0x112D0, symBinAddr: 0x1000118C8, symSize: 0x5C }
  - { offsetInCU: 0x17373, offset: 0x17373, size: 0x8, addend: 0x0, symName: __ZNSt3__113__rewrap_iterB7v160006INS_16reverse_iteratorIPiEES3_NS_18__unwrap_iter_implIS3_Lb0EEEEET_S6_T0_, symObjAddr: 0x1132C, symBinAddr: 0x100011924, symSize: 0x88 }
  - { offsetInCU: 0x17434, offset: 0x17434, size: 0x8, addend: 0x0, symName: __ZNSt3__116__pad_and_outputB7v160006IcNS_11char_traitsIcEEEENS_19ostreambuf_iteratorIT_T0_EES6_PKS4_S8_S8_RNS_8ios_baseES4_, symObjAddr: 0x119A8, symBinAddr: 0x100011FA0, symSize: 0x248 }
  - { offsetInCU: 0x17503, offset: 0x17503, size: 0x8, addend: 0x0, symName: __ZNSt3__119__debug_db_insert_cB7v160006INS_12basic_stringIcNS_11char_traitsIcEENS_9allocatorIcEEEEEEvPT_, symObjAddr: 0x11E64, symBinAddr: 0x10001245C, symSize: 0x10 }
  - { offsetInCU: 0x17534, offset: 0x17534, size: 0x8, addend: 0x0, symName: __ZNSt3__112__to_addressB7v160006IKcEEPT_S3_, symObjAddr: 0x11F30, symBinAddr: 0x100012528, symSize: 0x14 }
  - { offsetInCU: 0x1759C, offset: 0x1759C, size: 0x8, addend: 0x0, symName: __ZNSt3__19use_facetB7v160006INS_5ctypeIcEEEERKT_RKNS_6localeE, symObjAddr: 0x12208, symBinAddr: 0x100012800, symSize: 0x2C }
  - { offsetInCU: 0x17A6B, offset: 0x17A6B, size: 0x8, addend: 0x0, symName: __ZNSt3__118__constexpr_strlenB7v160006EPKc, symObjAddr: 0x122A0, symBinAddr: 0x100012898, symSize: 0x24 }
  - { offsetInCU: 0x17A97, offset: 0x17A97, size: 0x8, addend: 0x0, symName: __ZNSt3__1eqB7v160006ERKNS_15__list_iteratorI8ObstaclePvEES5_, symObjAddr: 0x12330, symBinAddr: 0x100012928, symSize: 0x30 }
  - { offsetInCU: 0x17AD4, offset: 0x17AD4, size: 0x8, addend: 0x0, symName: __ZNSt3__130__uninitialized_allocator_copyB7v160006INS_9allocatorIiEEPiS3_S3_EET2_RT_T0_T1_S4_, symObjAddr: 0x125B4, symBinAddr: 0x100012BAC, symSize: 0xFC }
  - { offsetInCU: 0x17B72, offset: 0x17B72, size: 0x8, addend: 0x0, symName: __ZNSt3__122__make_exception_guardB7v160006INS_29_AllocatorDestroyRangeReverseINS_9allocatorIiEEPiEEEENS_28__exception_guard_exceptionsIT_EES7_, symObjAddr: 0x126B0, symBinAddr: 0x100012CA8, symSize: 0x4C }
  - { offsetInCU: 0x17BA8, offset: 0x17BA8, size: 0x8, addend: 0x0, symName: __ZNSt3__119__allocator_destroyB7v160006INS_9allocatorIiEENS_16reverse_iteratorIPiEES5_EEvRT_T0_T1_, symObjAddr: 0x12930, symBinAddr: 0x100012F28, symSize: 0x70 }
  - { offsetInCU: 0x17C0B, offset: 0x17C0B, size: 0x8, addend: 0x0, symName: __ZNSt3__1eqB7v160006IPiEEbRKNS_11__wrap_iterIT_EES6_, symObjAddr: 0x129A0, symBinAddr: 0x100012F98, symSize: 0x48 }
  - { offsetInCU: 0x17C4E, offset: 0x17C4E, size: 0x8, addend: 0x0, symName: __ZNSt3__1miB7v160006IPKiS2_EENS_11__wrap_iterIT_E15difference_typeERKS5_RKNS3_IT0_EE, symObjAddr: 0x129E8, symBinAddr: 0x100012FE0, symSize: 0x48 }
  - { offsetInCU: 0x17C9A, offset: 0x17C9A, size: 0x8, addend: 0x0, symName: __ZNSt3__14moveB7v160006IPiS1_EET0_T_S3_S2_, symObjAddr: 0x12AE4, symBinAddr: 0x1000130DC, symSize: 0x40 }
  - { offsetInCU: 0x17CF4, offset: 0x17CF4, size: 0x8, addend: 0x0, symName: __ZNSt3__16__moveB7v160006INS_17_ClassicAlgPolicyEPiS2_S2_EENS_4pairIT0_T2_EES4_T1_S5_, symObjAddr: 0x12CC8, symBinAddr: 0x1000132C0, symSize: 0x44 }
  - { offsetInCU: 0x17D60, offset: 0x17D60, size: 0x8, addend: 0x0, symName: __ZNSt3__123__dispatch_copy_or_moveB7v160006INS_17_ClassicAlgPolicyENS_11__move_loopIS1_EENS_14__move_trivialEPiS5_S5_EENS_4pairIT2_T4_EES7_T3_S8_, symObjAddr: 0x12D0C, symBinAddr: 0x100013304, symSize: 0x54 }
  - { offsetInCU: 0x17DDE, offset: 0x17DDE, size: 0x8, addend: 0x0, symName: __ZNSt3__121__unwrap_and_dispatchB7v160006INS_10__overloadINS_11__move_loopINS_17_ClassicAlgPolicyEEENS_14__move_trivialEEEPiS7_S7_Li0EEENS_4pairIT0_T2_EES9_T1_SA_, symObjAddr: 0x12D60, symBinAddr: 0x100013358, symSize: 0xB4 }
  - { offsetInCU: 0x17E6C, offset: 0x17E6C, size: 0x8, addend: 0x0, symName: __ZNSt3__114__unwrap_rangeB7v160006IPiS1_EENS_4pairIT0_S3_EET_S5_, symObjAddr: 0x12E14, symBinAddr: 0x10001340C, symSize: 0x60 }
  - { offsetInCU: 0x17F65, offset: 0x17F65, size: 0x8, addend: 0x0, symName: __ZNSt3__113__unwrap_iterB7v160006IPiNS_18__unwrap_iter_implIS1_Lb1EEELi0EEEDTclsrT0_8__unwrapclsr3stdE7declvalIT_EEEES5_, symObjAddr: 0x12EBC, symBinAddr: 0x1000134B4, symSize: 0x24 }
  - { offsetInCU: 0x17FA9, offset: 0x17FA9, size: 0x8, addend: 0x0, symName: __ZNSt3__19make_pairB7v160006IPiS1_EENS_4pairINS_18__unwrap_ref_decayIT_E4typeENS3_IT0_E4typeEEEOS4_OS7_, symObjAddr: 0x12EE0, symBinAddr: 0x1000134D8, symSize: 0x38 }
  - { offsetInCU: 0x17FF8, offset: 0x17FF8, size: 0x8, addend: 0x0, symName: __ZNSt3__114__rewrap_rangeB7v160006IPiS1_EET_S2_T0_, symObjAddr: 0x12F18, symBinAddr: 0x100013510, symSize: 0x2C }
  - { offsetInCU: 0x18044, offset: 0x18044, size: 0x8, addend: 0x0, symName: __ZNSt3__113__rewrap_iterB7v160006IPiS1_NS_18__unwrap_iter_implIS1_Lb1EEEEET_S4_T0_, symObjAddr: 0x12F44, symBinAddr: 0x10001353C, symSize: 0x50 }
  - { offsetInCU: 0x18099, offset: 0x18099, size: 0x8, addend: 0x0, symName: __ZNSt3__119__copy_trivial_implB7v160006IiiEENS_4pairIPT_PT0_EES3_S3_S5_, symObjAddr: 0x12F94, symBinAddr: 0x10001358C, symSize: 0x84 }
  - { offsetInCU: 0x18101, offset: 0x18101, size: 0x8, addend: 0x0, symName: __ZNSt3__19make_pairB7v160006IRPiS1_EENS_4pairINS_18__unwrap_ref_decayIT_E4typeENS4_IT0_E4typeEEEOS5_OS8_, symObjAddr: 0x13018, symBinAddr: 0x100013610, symSize: 0x38 }
  - { offsetInCU: 0x18203, offset: 0x18203, size: 0x8, addend: 0x0, symName: __ZNSt3__1miB7v160006IPiS1_EENS_11__wrap_iterIT_E15difference_typeERKS4_RKNS2_IT0_EE, symObjAddr: 0x140F8, symBinAddr: 0x1000146F0, symSize: 0x48 }
  - { offsetInCU: 0x1824F, offset: 0x1824F, size: 0x8, addend: 0x0, symName: __ZNSt3__113__countl_zeroB7v160006ImEEiT_, symObjAddr: 0x14478, symBinAddr: 0x100014A70, symSize: 0x54 }
  - { offsetInCU: 0x18284, offset: 0x18284, size: 0x8, addend: 0x0, symName: __ZNSt3__112__libcpp_clzB7v160006Em, symObjAddr: 0x14AF4, symBinAddr: 0x1000150EC, symSize: 0x1C }
  - { offsetInCU: 0x182B0, offset: 0x182B0, size: 0x8, addend: 0x0, symName: __ZNSt3__119__debug_db_insert_cB7v160006INS_4listI8ObstacleNS_9allocatorIS2_EEEEEEvPT_, symObjAddr: 0x14DC8, symBinAddr: 0x1000153C0, symSize: 0x10 }
  - { offsetInCU: 0x182E1, offset: 0x182E1, size: 0x8, addend: 0x0, symName: __ZNSt3__119__debug_db_insert_cB7v160006INS_4listI5CoinsNS_9allocatorIS2_EEEEEEvPT_, symObjAddr: 0x152F4, symBinAddr: 0x1000158EC, symSize: 0x10 }
  - { offsetInCU: 0x18312, offset: 0x18312, size: 0x8, addend: 0x0, symName: __ZNSt3__1neB7v160006ERKNS_21__list_const_iteratorI5CoinsPvEES5_, symObjAddr: 0x15628, symBinAddr: 0x100015C20, symSize: 0x34 }
  - { offsetInCU: 0x1834F, offset: 0x1834F, size: 0x8, addend: 0x0, symName: __ZNSt3__1eqB7v160006ERKNS_21__list_const_iteratorI5CoinsPvEES5_, symObjAddr: 0x15844, symBinAddr: 0x100015E3C, symSize: 0x30 }
  - { offsetInCU: 0x18D3F, offset: 0x18D3F, size: 0x8, addend: 0x0, symName: __ZSt28__throw_bad_array_new_lengthB7v160006v, symObjAddr: 0x3B7C, symBinAddr: 0x100004174, symSize: 0x34 }
  - { offsetInCU: 0x19703, offset: 0x19703, size: 0x8, addend: 0x0, symName: __ZNSt3__16vectorINS_4pairIiiEENS_9allocatorIS2_EEE26__swap_out_circular_bufferERNS_14__split_bufferIS2_RS4_EE, symObjAddr: 0xA780, symBinAddr: 0x10000AD78, symSize: 0x118 }
  - { offsetInCU: 0x199CD, offset: 0x199CD, size: 0x8, addend: 0x0, symName: __ZNSt3__16vectorIiNS_9allocatorIiEEE26__swap_out_circular_bufferERNS_14__split_bufferIiRS2_EE, symObjAddr: 0x1086C, symBinAddr: 0x100010E64, symSize: 0x118 }
  - { offsetInCU: 0x19BA2, offset: 0x19BA2, size: 0x8, addend: 0x0, symName: __ZNSt3__124uniform_int_distributionIlEclINS_23mersenne_twister_engineIjLm32ELm624ELm397ELm31ELj2567483615ELm11ELj4294967295ELm7ELj2636928640ELm15ELj4022730752ELm18ELj1812433253EEEEElRT_RKNS1_10param_typeE, symObjAddr: 0x1417C, symBinAddr: 0x100014774, symSize: 0x174 }
  - { offsetInCU: 0x1BFBB, offset: 0x1BFBB, size: 0x8, addend: 0x0, symName: __Z7displayR5GraphiiR3CarRNSt3__14listI8ObstacleNS3_9allocatorIS5_EEEEiNS4_I5CoinsNS6_ISA_EEEE, symObjAddr: 0x0, symBinAddr: 0x1000005F8, symSize: 0x358 }
  - { offsetInCU: 0x1C75A, offset: 0x1C75A, size: 0x8, addend: 0x0, symName: __ZN3Car11getCarPlaceEv, symObjAddr: 0x358, symBinAddr: 0x100000950, symSize: 0x18 }
  - { offsetInCU: 0x1C780, offset: 0x1C780, size: 0x8, addend: 0x0, symName: __ZN3Car12getCarSymbolEv, symObjAddr: 0x3A4, symBinAddr: 0x10000099C, symSize: 0x18 }
  - { offsetInCU: 0x1C7A6, offset: 0x1C7A6, size: 0x8, addend: 0x0, symName: __ZNKSt3__14listI8ObstacleNS_9allocatorIS1_EEE5emptyB7v160006Ev, symObjAddr: 0x3BC, symBinAddr: 0x1000009B4, symSize: 0x28 }
  - { offsetInCU: 0x1C7CC, offset: 0x1C7CC, size: 0x8, addend: 0x0, symName: __ZNSt3__14listI8ObstacleNS_9allocatorIS1_EEE5beginB7v160006Ev, symObjAddr: 0x3E4, symBinAddr: 0x1000009DC, symSize: 0x2C }
  - { offsetInCU: 0x1C7F2, offset: 0x1C7F2, size: 0x8, addend: 0x0, symName: __ZNSt3__14listI8ObstacleNS_9allocatorIS1_EEE3endB7v160006Ev, symObjAddr: 0x410, symBinAddr: 0x100000A08, symSize: 0x2C }
  - { offsetInCU: 0x1C818, offset: 0x1C818, size: 0x8, addend: 0x0, symName: __ZNKSt3__115__list_iteratorI8ObstaclePvEdeB7v160006Ev, symObjAddr: 0x470, symBinAddr: 0x100000A68, symSize: 0x2C }
  - { offsetInCU: 0x1C83E, offset: 0x1C83E, size: 0x8, addend: 0x0, symName: __ZNSt3__115__list_iteratorI8ObstaclePvEppB7v160006Ev, symObjAddr: 0x49C, symBinAddr: 0x100000A94, symSize: 0x20 }
  - { offsetInCU: 0x1C864, offset: 0x1C864, size: 0x8, addend: 0x0, symName: __ZN5Graph13doesEdgeExistEii, symObjAddr: 0x504, symBinAddr: 0x100000AFC, symSize: 0xD8 }
  - { offsetInCU: 0x1C8F7, offset: 0x1C8F7, size: 0x8, addend: 0x0, symName: __ZNSt3__113basic_ostreamIcNS_11char_traitsIcEEElsB7v160006EPFRS3_S4_E, symObjAddr: 0x5DC, symBinAddr: 0x100000BD4, symSize: 0x2C }
  - { offsetInCU: 0x1C92A, offset: 0x1C92A, size: 0x8, addend: 0x0, symName: __Z17generateObstaclesRNSt3__14listI8ObstacleNS_9allocatorIS1_EEEEiiRNS_6vectorIiNS2_IiEEEEi, symObjAddr: 0x660, symBinAddr: 0x100000C58, symSize: 0x1A8 }
  - { offsetInCU: 0x1C9FB, offset: 0x1C9FB, size: 0x8, addend: 0x0, symName: __ZNSt3__16vectorIiNS_9allocatorIiEEEC1ERKS3_, symObjAddr: 0x808, symBinAddr: 0x100000E00, symSize: 0x34 }
  - { offsetInCU: 0x1CA36, offset: 0x1CA36, size: 0x8, addend: 0x0, symName: __ZNSt3__16vectorIiNS_9allocatorIiEEE5beginB7v160006Ev, symObjAddr: 0x8BC, symBinAddr: 0x100000EB4, symSize: 0x30 }
  - { offsetInCU: 0x1CA5E, offset: 0x1CA5E, size: 0x8, addend: 0x0, symName: __ZNSt3__16vectorIiNS_9allocatorIiEEE3endB7v160006Ev, symObjAddr: 0x8EC, symBinAddr: 0x100000EE4, symSize: 0x30 }
  - { offsetInCU: 0x1CA86, offset: 0x1CA86, size: 0x8, addend: 0x0, symName: __ZNSt3__16vectorIiNS_9allocatorIiEEE5eraseB7v160006ENS_11__wrap_iterIPKiEE, symObjAddr: 0x950, symBinAddr: 0x100000F48, symSize: 0xB4 }
  - { offsetInCU: 0x1CAE6, offset: 0x1CAE6, size: 0x8, addend: 0x0, symName: __ZNSt3__111__wrap_iterIPKiEC1B7v160006IPiEERKNS0_IT_EEPNS_9enable_ifIXsr14is_convertibleIS6_S2_EE5valueEvE4typeE, symObjAddr: 0xA04, symBinAddr: 0x100000FFC, symSize: 0x3C }
  - { offsetInCU: 0x1CB31, offset: 0x1CB31, size: 0x8, addend: 0x0, symName: __ZNSt3__16vectorIiNS_9allocatorIiEEEixB7v160006Em, symObjAddr: 0xA40, symBinAddr: 0x100001038, symSize: 0x24 }
  - { offsetInCU: 0x1CB68, offset: 0x1CB68, size: 0x8, addend: 0x0, symName: __ZNKSt3__16vectorIiNS_9allocatorIiEEE4sizeB7v160006Ev, symObjAddr: 0xA64, symBinAddr: 0x10000105C, symSize: 0x28 }
  - { offsetInCU: 0x1CB8E, offset: 0x1CB8E, size: 0x8, addend: 0x0, symName: __ZNSt3__14listI8ObstacleNS_9allocatorIS1_EEE9push_backERKS1_, symObjAddr: 0xA8C, symBinAddr: 0x100001084, symSize: 0xFC }
  - { offsetInCU: 0x1CBE3, offset: 0x1CBE3, size: 0x8, addend: 0x0, symName: __ZNSt3__16vectorIiNS_9allocatorIiEEED1B7v160006Ev, symObjAddr: 0xB88, symBinAddr: 0x100001180, symSize: 0x2C }
  - { offsetInCU: 0x1CC0C, offset: 0x1CC0C, size: 0x8, addend: 0x0, symName: __Z13generateCoinsNSt3__14listI5CoinsNS_9allocatorIS1_EEEEiiRNS_6vectorIiNS2_IiEEEEi, symObjAddr: 0xBC0, symBinAddr: 0x1000011B8, symSize: 0x1B0 }
  - { offsetInCU: 0x1CEE9, offset: 0x1CEE9, size: 0x8, addend: 0x0, symName: __ZNSt3__14listI5CoinsNS_9allocatorIS1_EEE9push_backERKS1_, symObjAddr: 0xD70, symBinAddr: 0x100001368, symSize: 0xFC }
  - { offsetInCU: 0x1CF3D, offset: 0x1CF3D, size: 0x8, addend: 0x0, symName: __Z11generateMapR5Graphii, symObjAddr: 0xE6C, symBinAddr: 0x100001464, symSize: 0x3A4 }
  - { offsetInCU: 0x1D0E7, offset: 0x1D0E7, size: 0x8, addend: 0x0, symName: __ZN5Graph5clearEv, symObjAddr: 0x1210, symBinAddr: 0x100001808, symSize: 0x78 }
  - { offsetInCU: 0x1D129, offset: 0x1D129, size: 0x8, addend: 0x0, symName: __ZNSt3__16vectorIiNS_9allocatorIiEEEC1B7v160006Ev, symObjAddr: 0x1288, symBinAddr: 0x100001880, symSize: 0x2C }
  - { offsetInCU: 0x1D153, offset: 0x1D153, size: 0x8, addend: 0x0, symName: __ZNSt3__16vectorIiNS_9allocatorIiEEE9push_backB7v160006ERKi, symObjAddr: 0x12B4, symBinAddr: 0x1000018AC, symSize: 0x6C }
  - { offsetInCU: 0x1D18F, offset: 0x1D18F, size: 0x8, addend: 0x0, symName: __ZNSt3__112basic_stringIcNS_11char_traitsIcEENS_9allocatorIcEEEC1B7v160006IDnEEPKc, symObjAddr: 0x1320, symBinAddr: 0x100001918, symSize: 0x34 }
  - { offsetInCU: 0x1D1CD, offset: 0x1D1CD, size: 0x8, addend: 0x0, symName: __ZNSt3__123mersenne_twister_engineIjLm32ELm624ELm397ELm31ELj2567483615ELm11ELj4294967295ELm7ELj2636928640ELm15ELj4022730752ELm18ELj1812433253EEC1B7v160006Ej, symObjAddr: 0x1354, symBinAddr: 0x10000194C, symSize: 0x34 }
  - { offsetInCU: 0x1D205, offset: 0x1D205, size: 0x8, addend: 0x0, symName: __ZN5Graph7addEdgeEiiib, symObjAddr: 0x13D0, symBinAddr: 0x1000019C8, symSize: 0xC4 }
  - { offsetInCU: 0x1D263, offset: 0x1D263, size: 0x8, addend: 0x0, symName: __ZN5Graph8findPathEii, symObjAddr: 0x1494, symBinAddr: 0x100001A8C, symSize: 0x3E0 }
  - { offsetInCU: 0x1D360, offset: 0x1D360, size: 0x8, addend: 0x0, symName: __ZNKSt3__16vectorIiNS_9allocatorIiEEE5emptyB7v160006Ev, symObjAddr: 0x1874, symBinAddr: 0x100001E6C, symSize: 0x28 }
  - { offsetInCU: 0x1D385, offset: 0x1D385, size: 0x8, addend: 0x0, symName: __Z18handlingScoreBoardNSt3__112basic_stringIcNS_11char_traitsIcEENS_9allocatorIcEEEEi, symObjAddr: 0x189C, symBinAddr: 0x100001E94, symSize: 0x13C }
  - { offsetInCU: 0x1D471, offset: 0x1D471, size: 0x8, addend: 0x0, symName: __ZNSt3__114basic_ofstreamIcNS_11char_traitsIcEEEC1Ev, symObjAddr: 0x19D8, symBinAddr: 0x100001FD0, symSize: 0xF4 }
  - { offsetInCU: 0x1D49D, offset: 0x1D49D, size: 0x8, addend: 0x0, symName: __ZNSt3__114basic_ofstreamIcNS_11char_traitsIcEEE5closeEv, symObjAddr: 0x1B18, symBinAddr: 0x100002110, symSize: 0x58 }
  - { offsetInCU: 0x1D4CA, offset: 0x1D4CA, size: 0x8, addend: 0x0, symName: __ZNSt3__114basic_ofstreamIcNS_11char_traitsIcEEED1Ev, symObjAddr: 0x1B70, symBinAddr: 0x100002168, symSize: 0x70 }
  - { offsetInCU: 0x1D4F7, offset: 0x1D4F7, size: 0x8, addend: 0x0, symName: _main, symObjAddr: 0x1BE0, symBinAddr: 0x1000021D8, symSize: 0x6AC }
  - { offsetInCU: 0x1D619, offset: 0x1D619, size: 0x8, addend: 0x0, symName: __ZN3CarC1Ev, symObjAddr: 0x228C, symBinAddr: 0x100002884, symSize: 0x2C }
  - { offsetInCU: 0x1D643, offset: 0x1D643, size: 0x8, addend: 0x0, symName: __ZNSt3__14listI8ObstacleNS_9allocatorIS1_EEEC1B7v160006Ev, symObjAddr: 0x22B8, symBinAddr: 0x1000028B0, symSize: 0x2C }
  - { offsetInCU: 0x1D66D, offset: 0x1D66D, size: 0x8, addend: 0x0, symName: __ZNSt3__15queueI8ObstacleNS_5dequeIS1_NS_9allocatorIS1_EEEEEC1B7v160006Ev, symObjAddr: 0x22E4, symBinAddr: 0x1000028DC, symSize: 0x2C }
  - { offsetInCU: 0x1D697, offset: 0x1D697, size: 0x8, addend: 0x0, symName: __ZNSt3__14listI5CoinsNS_9allocatorIS1_EEEC1B7v160006Ev, symObjAddr: 0x2310, symBinAddr: 0x100002908, symSize: 0x2C }
  - { offsetInCU: 0x1D6C1, offset: 0x1D6C1, size: 0x8, addend: 0x0, symName: __ZN5GraphC1Ei, symObjAddr: 0x233C, symBinAddr: 0x100002934, symSize: 0x34 }
  - { offsetInCU: 0x1D6F9, offset: 0x1D6F9, size: 0x8, addend: 0x0, symName: __ZN5Graph18dijkstrasAlgorithmEii, symObjAddr: 0x2370, symBinAddr: 0x100002968, symSize: 0x3F0 }
  - { offsetInCU: 0x1D813, offset: 0x1D813, size: 0x8, addend: 0x0, symName: __ZNSt3__14listI5CoinsNS_9allocatorIS1_EEEC1ERKS4_, symObjAddr: 0x2760, symBinAddr: 0x100002D58, symSize: 0x34 }
  - { offsetInCU: 0x1D84E, offset: 0x1D84E, size: 0x8, addend: 0x0, symName: __ZNSt3__14listI5CoinsNS_9allocatorIS1_EEED1Ev, symObjAddr: 0x2794, symBinAddr: 0x100002D8C, symSize: 0x2C }
  - { offsetInCU: 0x1D87B, offset: 0x1D87B, size: 0x8, addend: 0x0, symName: __ZNKSt3__111__wrap_iterIPiEdeB7v160006Ev, symObjAddr: 0x27C0, symBinAddr: 0x100002DB8, symSize: 0x18 }
  - { offsetInCU: 0x1D8A1, offset: 0x1D8A1, size: 0x8, addend: 0x0, symName: __ZNSt3__111__wrap_iterIPiEppB7v160006Ev, symObjAddr: 0x27D8, symBinAddr: 0x100002DD0, symSize: 0x20 }
  - { offsetInCU: 0x1D8C7, offset: 0x1D8C7, size: 0x8, addend: 0x0, symName: __ZN3Car7moveCarER5GraphciiRNSt3__14listI8ObstacleNS2_9allocatorIS4_EEEEiRNS2_5queueIS4_NS2_5dequeIS4_S6_EEEE, symObjAddr: 0x2988, symBinAddr: 0x100002F80, symSize: 0x66C }
  - { offsetInCU: 0x1D9C5, offset: 0x1D9C5, size: 0x8, addend: 0x0, symName: __ZN5GraphD1Ev, symObjAddr: 0x2FF4, symBinAddr: 0x1000035EC, symSize: 0x2C }
  - { offsetInCU: 0x1D9EF, offset: 0x1D9EF, size: 0x8, addend: 0x0, symName: __ZNSt3__15queueI8ObstacleNS_5dequeIS1_NS_9allocatorIS1_EEEEED1Ev, symObjAddr: 0x3020, symBinAddr: 0x100003618, symSize: 0x2C }
  - { offsetInCU: 0x1DA1C, offset: 0x1DA1C, size: 0x8, addend: 0x0, symName: __ZNSt3__14listI8ObstacleNS_9allocatorIS1_EEED1Ev, symObjAddr: 0x304C, symBinAddr: 0x100003644, symSize: 0x2C }
  - { offsetInCU: 0x1DA49, offset: 0x1DA49, size: 0x8, addend: 0x0, symName: __ZNSt3__14listINS_4pairIiiEENS_9allocatorIS2_EEE5beginB7v160006Ev, symObjAddr: 0x3078, symBinAddr: 0x100003670, symSize: 0x2C }
  - { offsetInCU: 0x1DA6F, offset: 0x1DA6F, size: 0x8, addend: 0x0, symName: __ZNSt3__14listINS_4pairIiiEENS_9allocatorIS2_EEE3endB7v160006Ev, symObjAddr: 0x30A4, symBinAddr: 0x10000369C, symSize: 0x2C }
  - { offsetInCU: 0x1DA95, offset: 0x1DA95, size: 0x8, addend: 0x0, symName: __ZNKSt3__115__list_iteratorINS_4pairIiiEEPvEdeB7v160006Ev, symObjAddr: 0x3104, symBinAddr: 0x1000036FC, symSize: 0x2C }
  - { offsetInCU: 0x1DABB, offset: 0x1DABB, size: 0x8, addend: 0x0, symName: __ZNSt3__115__list_iteratorINS_4pairIiiEEPvEppB7v160006Ev, symObjAddr: 0x3130, symBinAddr: 0x100003728, symSize: 0x20 }
  - { offsetInCU: 0x1DAE1, offset: 0x1DAE1, size: 0x8, addend: 0x0, symName: __ZNSt3__110__list_impINS_4pairIiiEENS_9allocatorIS2_EEE5beginB7v160006Ev, symObjAddr: 0x3150, symBinAddr: 0x100003748, symSize: 0x30 }
  - { offsetInCU: 0x1DB07, offset: 0x1DB07, size: 0x8, addend: 0x0, symName: __ZNSt3__115__list_iteratorINS_4pairIiiEEPvEC1B7v160006EPNS_16__list_node_baseIS2_S3_EEPKv, symObjAddr: 0x3180, symBinAddr: 0x100003778, symSize: 0x3C }
  - { offsetInCU: 0x1DB4F, offset: 0x1DB4F, size: 0x8, addend: 0x0, symName: __ZNSt3__115__list_iteratorINS_4pairIiiEEPvEC2B7v160006EPNS_16__list_node_baseIS2_S3_EEPKv, symObjAddr: 0x31BC, symBinAddr: 0x1000037B4, symSize: 0x24 }
  - { offsetInCU: 0x1DB97, offset: 0x1DB97, size: 0x8, addend: 0x0, symName: __ZNSt3__110__list_impINS_4pairIiiEENS_9allocatorIS2_EEE3endB7v160006Ev, symObjAddr: 0x31E0, symBinAddr: 0x1000037D8, symSize: 0x3C }
  - { offsetInCU: 0x1DBBD, offset: 0x1DBBD, size: 0x8, addend: 0x0, symName: __ZNKSt3__110__list_impINS_4pairIiiEENS_9allocatorIS2_EEE13__end_as_linkB7v160006Ev, symObjAddr: 0x321C, symBinAddr: 0x100003814, symSize: 0x58 }
  - { offsetInCU: 0x1DBE3, offset: 0x1DBE3, size: 0x8, addend: 0x0, symName: __ZNSt3__126__list_node_pointer_traitsINS_4pairIiiEEPvE26__unsafe_link_pointer_castB7v160006EPNS_16__list_node_baseIS2_S3_EE, symObjAddr: 0x3274, symBinAddr: 0x10000386C, symSize: 0x14 }
  - { offsetInCU: 0x1DC07, offset: 0x1DC07, size: 0x8, addend: 0x0, symName: __ZNSt3__116__list_node_baseINS_4pairIiiEEPvE6__selfB7v160006Ev, symObjAddr: 0x3288, symBinAddr: 0x100003880, symSize: 0x24 }
  - { offsetInCU: 0x1DC33, offset: 0x1DC33, size: 0x8, addend: 0x0, symName: __ZNSt3__114pointer_traitsIPNS_16__list_node_baseINS_4pairIiiEEPvEEE10pointer_toB7v160006ERS5_, symObjAddr: 0x32AC, symBinAddr: 0x1000038A4, symSize: 0x14 }
  - { offsetInCU: 0x1DC56, offset: 0x1DC56, size: 0x8, addend: 0x0, symName: __ZNSt3__116__list_node_baseINS_4pairIiiEEPvE9__as_nodeB7v160006Ev, symObjAddr: 0x32F0, symBinAddr: 0x1000038E8, symSize: 0x24 }
  - { offsetInCU: 0x1DC7C, offset: 0x1DC7C, size: 0x8, addend: 0x0, symName: __ZNSt3__14listINS_4pairIiiEENS_9allocatorIS2_EEE5clearB7v160006Ev, symObjAddr: 0x3314, symBinAddr: 0x10000390C, symSize: 0x24 }
  - { offsetInCU: 0x1DCA2, offset: 0x1DCA2, size: 0x8, addend: 0x0, symName: __ZNSt3__110__list_impINS_4pairIiiEENS_9allocatorIS2_EEE5clearEv, symObjAddr: 0x3338, symBinAddr: 0x100003930, symSize: 0xF4 }
  - { offsetInCU: 0x1DD12, offset: 0x1DD12, size: 0x8, addend: 0x0, symName: __ZNKSt3__110__list_impINS_4pairIiiEENS_9allocatorIS2_EEE5emptyB7v160006Ev, symObjAddr: 0x342C, symBinAddr: 0x100003A24, symSize: 0x34 }
  - { offsetInCU: 0x1DD38, offset: 0x1DD38, size: 0x8, addend: 0x0, symName: __ZNSt3__110__list_impINS_4pairIiiEENS_9allocatorIS2_EEE12__node_allocB7v160006Ev, symObjAddr: 0x3460, symBinAddr: 0x100003A58, symSize: 0x28 }
  - { offsetInCU: 0x1DD5E, offset: 0x1DD5E, size: 0x8, addend: 0x0, symName: __ZNSt3__110__list_impINS_4pairIiiEENS_9allocatorIS2_EEE14__unlink_nodesEPNS_16__list_node_baseIS2_PvEES9_, symObjAddr: 0x3488, symBinAddr: 0x100003A80, symSize: 0x3C }
  - { offsetInCU: 0x1DD93, offset: 0x1DD93, size: 0x8, addend: 0x0, symName: __ZNSt3__110__list_impINS_4pairIiiEENS_9allocatorIS2_EEE4__szB7v160006Ev, symObjAddr: 0x34C4, symBinAddr: 0x100003ABC, symSize: 0x28 }
  - { offsetInCU: 0x1DDB9, offset: 0x1DDB9, size: 0x8, addend: 0x0, symName: __ZNSt3__116allocator_traitsINS_9allocatorINS_11__list_nodeINS_4pairIiiEEPvEEEEE7destroyB7v160006IS4_vvEEvRS7_PT_, symObjAddr: 0x34EC, symBinAddr: 0x100003AE4, symSize: 0x14 }
  - { offsetInCU: 0x1DDF3, offset: 0x1DDF3, size: 0x8, addend: 0x0, symName: __ZNSt3__116allocator_traitsINS_9allocatorINS_11__list_nodeINS_4pairIiiEEPvEEEEE10deallocateB7v160006ERS7_PS6_m, symObjAddr: 0x3500, symBinAddr: 0x100003AF8, symSize: 0x34 }
  - { offsetInCU: 0x1DE35, offset: 0x1DE35, size: 0x8, addend: 0x0, symName: __ZNKSt3__110__list_impINS_4pairIiiEENS_9allocatorIS2_EEE4__szB7v160006Ev, symObjAddr: 0x3544, symBinAddr: 0x100003B3C, symSize: 0x28 }
  - { offsetInCU: 0x1DE5B, offset: 0x1DE5B, size: 0x8, addend: 0x0, symName: __ZNKSt3__117__compressed_pairImNS_9allocatorINS_11__list_nodeINS_4pairIiiEEPvEEEEE5firstB7v160006Ev, symObjAddr: 0x356C, symBinAddr: 0x100003B64, symSize: 0x24 }
  - { offsetInCU: 0x1DE81, offset: 0x1DE81, size: 0x8, addend: 0x0, symName: __ZNKSt3__122__compressed_pair_elemImLi0ELb0EE5__getB7v160006Ev, symObjAddr: 0x3590, symBinAddr: 0x100003B88, symSize: 0x14 }
  - { offsetInCU: 0x1DEA7, offset: 0x1DEA7, size: 0x8, addend: 0x0, symName: __ZNSt3__117__compressed_pairImNS_9allocatorINS_11__list_nodeINS_4pairIiiEEPvEEEEE6secondB7v160006Ev, symObjAddr: 0x35A4, symBinAddr: 0x100003B9C, symSize: 0x24 }
  - { offsetInCU: 0x1DECD, offset: 0x1DECD, size: 0x8, addend: 0x0, symName: __ZNSt3__122__compressed_pair_elemINS_9allocatorINS_11__list_nodeINS_4pairIiiEEPvEEEELi1ELb1EE5__getB7v160006Ev, symObjAddr: 0x35C8, symBinAddr: 0x100003BC0, symSize: 0x14 }
  - { offsetInCU: 0x1DEF3, offset: 0x1DEF3, size: 0x8, addend: 0x0, symName: __ZNSt3__117__compressed_pairImNS_9allocatorINS_11__list_nodeINS_4pairIiiEEPvEEEEE5firstB7v160006Ev, symObjAddr: 0x35DC, symBinAddr: 0x100003BD4, symSize: 0x24 }
  - { offsetInCU: 0x1DF19, offset: 0x1DF19, size: 0x8, addend: 0x0, symName: __ZNSt3__122__compressed_pair_elemImLi0ELb0EE5__getB7v160006Ev, symObjAddr: 0x3600, symBinAddr: 0x100003BF8, symSize: 0x14 }
  - { offsetInCU: 0x1DF3F, offset: 0x1DF3F, size: 0x8, addend: 0x0, symName: __ZNSt3__19allocatorINS_11__list_nodeINS_4pairIiiEEPvEEE10deallocateB7v160006EPS5_m, symObjAddr: 0x3614, symBinAddr: 0x100003C0C, symSize: 0x74 }
  - { offsetInCU: 0x1DF81, offset: 0x1DF81, size: 0x8, addend: 0x0, symName: __ZNSt3__14listINS_4pairIiiEENS_9allocatorIS2_EEE9push_backERKS2_, symObjAddr: 0x3710, symBinAddr: 0x100003D08, symSize: 0xFC }
  - { offsetInCU: 0x1DFD6, offset: 0x1DFD6, size: 0x8, addend: 0x0, symName: __ZNSt3__14listINS_4pairIiiEENS_9allocatorIS2_EEE15__allocate_nodeB7v160006ERNS3_INS_11__list_nodeIS2_PvEEEE, symObjAddr: 0x3840, symBinAddr: 0x100003E38, symSize: 0x70 }
  - { offsetInCU: 0x1E01A, offset: 0x1E01A, size: 0x8, addend: 0x0, symName: __ZNSt3__116allocator_traitsINS_9allocatorINS_11__list_nodeINS_4pairIiiEEPvEEEEE9constructB7v160006IS4_JRKS4_EvEEvRS7_PT_DpOT0_, symObjAddr: 0x38B0, symBinAddr: 0x100003EA8, symSize: 0x34 }
  - { offsetInCU: 0x1E071, offset: 0x1E071, size: 0x8, addend: 0x0, symName: __ZNKSt3__110unique_ptrINS_11__list_nodeINS_4pairIiiEEPvEENS_22__allocator_destructorINS_9allocatorIS5_EEEEEptB7v160006Ev, symObjAddr: 0x38E4, symBinAddr: 0x100003EDC, symSize: 0x28 }
  - { offsetInCU: 0x1E097, offset: 0x1E097, size: 0x8, addend: 0x0, symName: __ZNSt3__14listINS_4pairIiiEENS_9allocatorIS2_EEE20__link_nodes_at_backEPNS_16__list_node_baseIS2_PvEES9_, symObjAddr: 0x390C, symBinAddr: 0x100003F04, symSize: 0x60 }
  - { offsetInCU: 0x1E0DD, offset: 0x1E0DD, size: 0x8, addend: 0x0, symName: __ZNKSt3__110unique_ptrINS_11__list_nodeINS_4pairIiiEEPvEENS_22__allocator_destructorINS_9allocatorIS5_EEEEE3getB7v160006Ev, symObjAddr: 0x396C, symBinAddr: 0x100003F64, symSize: 0x28 }
  - { offsetInCU: 0x1E103, offset: 0x1E103, size: 0x8, addend: 0x0, symName: __ZNSt3__111__list_nodeINS_4pairIiiEEPvE9__as_linkB7v160006Ev, symObjAddr: 0x3994, symBinAddr: 0x100003F8C, symSize: 0x24 }
  - { offsetInCU: 0x1E129, offset: 0x1E129, size: 0x8, addend: 0x0, symName: __ZNSt3__110unique_ptrINS_11__list_nodeINS_4pairIiiEEPvEENS_22__allocator_destructorINS_9allocatorIS5_EEEEE7releaseB7v160006Ev, symObjAddr: 0x39B8, symBinAddr: 0x100003FB0, symSize: 0x44 }
  - { offsetInCU: 0x1E15E, offset: 0x1E15E, size: 0x8, addend: 0x0, symName: __ZNSt3__110unique_ptrINS_11__list_nodeINS_4pairIiiEEPvEENS_22__allocator_destructorINS_9allocatorIS5_EEEEED1B7v160006Ev, symObjAddr: 0x39FC, symBinAddr: 0x100003FF4, symSize: 0x2C }
  - { offsetInCU: 0x1E188, offset: 0x1E188, size: 0x8, addend: 0x0, symName: __ZNSt3__116allocator_traitsINS_9allocatorINS_11__list_nodeINS_4pairIiiEEPvEEEEE8allocateB7v160006ERS7_m, symObjAddr: 0x3A28, symBinAddr: 0x100004020, symSize: 0x2C }
  - { offsetInCU: 0x1E1BB, offset: 0x1E1BB, size: 0x8, addend: 0x0, symName: __ZNSt3__122__allocator_destructorINS_9allocatorINS_11__list_nodeINS_4pairIiiEEPvEEEEEC1B7v160006ERS7_m, symObjAddr: 0x3A54, symBinAddr: 0x10000404C, symSize: 0x3C }
  - { offsetInCU: 0x1E207, offset: 0x1E207, size: 0x8, addend: 0x0, symName: __ZNSt3__110unique_ptrINS_11__list_nodeINS_4pairIiiEEPvEENS_22__allocator_destructorINS_9allocatorIS5_EEEEEC1B7v160006ILb1EvEEPS5_NS_16__dependent_typeINS_27__unique_ptr_deleter_sfinaeIS9_EEXT_EE20__good_rval_ref_typeE, symObjAddr: 0x3A90, symBinAddr: 0x100004088, symSize: 0x3C }
  - { offsetInCU: 0x1E258, offset: 0x1E258, size: 0x8, addend: 0x0, symName: __ZNSt3__19allocatorINS_11__list_nodeINS_4pairIiiEEPvEEE8allocateB7v160006Em, symObjAddr: 0x3ACC, symBinAddr: 0x1000040C4, symSize: 0x8C }
  - { offsetInCU: 0x1E297, offset: 0x1E297, size: 0x8, addend: 0x0, symName: __ZNSt3__116allocator_traitsINS_9allocatorINS_11__list_nodeINS_4pairIiiEEPvEEEEE8max_sizeB7v160006IS7_vEEmRKS7_, symObjAddr: 0x3B58, symBinAddr: 0x100004150, symSize: 0x24 }
  - { offsetInCU: 0x1E2C5, offset: 0x1E2C5, size: 0x8, addend: 0x0, symName: __ZNKSt3__19allocatorINS_11__list_nodeINS_4pairIiiEEPvEEE8max_sizeB7v160006Ev, symObjAddr: 0x3BD8, symBinAddr: 0x1000041D0, symSize: 0x18 }
  - { offsetInCU: 0x1E2EB, offset: 0x1E2EB, size: 0x8, addend: 0x0, symName: __ZNSt3__122__allocator_destructorINS_9allocatorINS_11__list_nodeINS_4pairIiiEEPvEEEEEC2B7v160006ERS7_m, symObjAddr: 0x3C14, symBinAddr: 0x10000420C, symSize: 0x2C }
  - { offsetInCU: 0x1E331, offset: 0x1E331, size: 0x8, addend: 0x0, symName: __ZNSt3__110unique_ptrINS_11__list_nodeINS_4pairIiiEEPvEENS_22__allocator_destructorINS_9allocatorIS5_EEEEEC2B7v160006ILb1EvEEPS5_NS_16__dependent_typeINS_27__unique_ptr_deleter_sfinaeIS9_EEXT_EE20__good_rval_ref_typeE, symObjAddr: 0x3C40, symBinAddr: 0x100004238, symSize: 0x5C }
  - { offsetInCU: 0x1E382, offset: 0x1E382, size: 0x8, addend: 0x0, symName: __ZNSt3__117__compressed_pairIPNS_11__list_nodeINS_4pairIiiEEPvEENS_22__allocator_destructorINS_9allocatorIS5_EEEEEC1B7v160006IRS6_SA_EEOT_OT0_, symObjAddr: 0x3C9C, symBinAddr: 0x100004294, symSize: 0x3C }
  - { offsetInCU: 0x1E3DA, offset: 0x1E3DA, size: 0x8, addend: 0x0, symName: __ZNSt3__117__compressed_pairIPNS_11__list_nodeINS_4pairIiiEEPvEENS_22__allocator_destructorINS_9allocatorIS5_EEEEEC2B7v160006IRS6_SA_EEOT_OT0_, symObjAddr: 0x3CD8, symBinAddr: 0x1000042D0, symSize: 0x48 }
  - { offsetInCU: 0x1E432, offset: 0x1E432, size: 0x8, addend: 0x0, symName: __ZNSt3__122__compressed_pair_elemIPNS_11__list_nodeINS_4pairIiiEEPvEELi0ELb0EEC2B7v160006IRS6_vEEOT_, symObjAddr: 0x3D20, symBinAddr: 0x100004318, symSize: 0x24 }
  - { offsetInCU: 0x1E474, offset: 0x1E474, size: 0x8, addend: 0x0, symName: __ZNSt3__122__compressed_pair_elemINS_22__allocator_destructorINS_9allocatorINS_11__list_nodeINS_4pairIiiEEPvEEEEEELi1ELb0EEC2B7v160006IS9_vEEOT_, symObjAddr: 0x3D44, symBinAddr: 0x10000433C, symSize: 0x24 }
  - { offsetInCU: 0x1E4B6, offset: 0x1E4B6, size: 0x8, addend: 0x0, symName: __ZNSt3__19allocatorINS_11__list_nodeINS_4pairIiiEEPvEEE9constructB7v160006IS3_JRKS3_EEEvPT_DpOT0_, symObjAddr: 0x3D68, symBinAddr: 0x100004360, symSize: 0x28 }
  - { offsetInCU: 0x1E50C, offset: 0x1E50C, size: 0x8, addend: 0x0, symName: __ZNKSt3__117__compressed_pairIPNS_11__list_nodeINS_4pairIiiEEPvEENS_22__allocator_destructorINS_9allocatorIS5_EEEEE5firstB7v160006Ev, symObjAddr: 0x3D90, symBinAddr: 0x100004388, symSize: 0x24 }
  - { offsetInCU: 0x1E532, offset: 0x1E532, size: 0x8, addend: 0x0, symName: __ZNKSt3__122__compressed_pair_elemIPNS_11__list_nodeINS_4pairIiiEEPvEELi0ELb0EE5__getB7v160006Ev, symObjAddr: 0x3DB4, symBinAddr: 0x1000043AC, symSize: 0x14 }
  - { offsetInCU: 0x1E558, offset: 0x1E558, size: 0x8, addend: 0x0, symName: __ZNSt3__117__compressed_pairIPNS_11__list_nodeINS_4pairIiiEEPvEENS_22__allocator_destructorINS_9allocatorIS5_EEEEE5firstB7v160006Ev, symObjAddr: 0x3DC8, symBinAddr: 0x1000043C0, symSize: 0x24 }
  - { offsetInCU: 0x1E57E, offset: 0x1E57E, size: 0x8, addend: 0x0, symName: __ZNSt3__122__compressed_pair_elemIPNS_11__list_nodeINS_4pairIiiEEPvEELi0ELb0EE5__getB7v160006Ev, symObjAddr: 0x3DEC, symBinAddr: 0x1000043E4, symSize: 0x14 }
  - { offsetInCU: 0x1E5A4, offset: 0x1E5A4, size: 0x8, addend: 0x0, symName: __ZNSt3__110unique_ptrINS_11__list_nodeINS_4pairIiiEEPvEENS_22__allocator_destructorINS_9allocatorIS5_EEEEED2B7v160006Ev, symObjAddr: 0x3E00, symBinAddr: 0x1000043F8, symSize: 0x30 }
  - { offsetInCU: 0x1E5CE, offset: 0x1E5CE, size: 0x8, addend: 0x0, symName: __ZNSt3__110unique_ptrINS_11__list_nodeINS_4pairIiiEEPvEENS_22__allocator_destructorINS_9allocatorIS5_EEEEE5resetB7v160006EPS5_, symObjAddr: 0x3E30, symBinAddr: 0x100004428, symSize: 0x78 }
  - { offsetInCU: 0x1E612, offset: 0x1E612, size: 0x8, addend: 0x0, symName: __ZNSt3__117__compressed_pairIPNS_11__list_nodeINS_4pairIiiEEPvEENS_22__allocator_destructorINS_9allocatorIS5_EEEEE6secondB7v160006Ev, symObjAddr: 0x3EA8, symBinAddr: 0x1000044A0, symSize: 0x28 }
  - { offsetInCU: 0x1E638, offset: 0x1E638, size: 0x8, addend: 0x0, symName: __ZNSt3__122__allocator_destructorINS_9allocatorINS_11__list_nodeINS_4pairIiiEEPvEEEEEclB7v160006EPS6_, symObjAddr: 0x3ED0, symBinAddr: 0x1000044C8, symSize: 0x34 }
  - { offsetInCU: 0x1E66C, offset: 0x1E66C, size: 0x8, addend: 0x0, symName: __ZNSt3__122__compressed_pair_elemINS_22__allocator_destructorINS_9allocatorINS_11__list_nodeINS_4pairIiiEEPvEEEEEELi1ELb0EE5__getB7v160006Ev, symObjAddr: 0x3F04, symBinAddr: 0x1000044FC, symSize: 0x14 }
  - { offsetInCU: 0x1E692, offset: 0x1E692, size: 0x8, addend: 0x0, symName: __ZNSt3__14pairIiiEC1B7v160006ERKiS3_, symObjAddr: 0x3F18, symBinAddr: 0x100004510, symSize: 0x3C }
  - { offsetInCU: 0x1E6D8, offset: 0x1E6D8, size: 0x8, addend: 0x0, symName: __ZNSt3__14pairIiiEC2B7v160006ERKiS3_, symObjAddr: 0x3F54, symBinAddr: 0x10000454C, symSize: 0x34 }
  - { offsetInCU: 0x1E74F, offset: 0x1E74F, size: 0x8, addend: 0x0, symName: __ZNSt3__15queueIiNS_5dequeIiNS_9allocatorIiEEEEEC1B7v160006Ev, symObjAddr: 0x3F88, symBinAddr: 0x100004580, symSize: 0x2C }
  - { offsetInCU: 0x1E779, offset: 0x1E779, size: 0x8, addend: 0x0, symName: __ZNSt3__16vectorIiNS_9allocatorIiEEEC1EmRKi, symObjAddr: 0x3FB4, symBinAddr: 0x1000045AC, symSize: 0x3C }
  - { offsetInCU: 0x1E7C3, offset: 0x1E7C3, size: 0x8, addend: 0x0, symName: __ZNSt3__16vectorIbNS_9allocatorIbEEEC1EmRKb, symObjAddr: 0x3FF0, symBinAddr: 0x1000045E8, symSize: 0x3C }
  - { offsetInCU: 0x1E80D, offset: 0x1E80D, size: 0x8, addend: 0x0, symName: __ZNSt3__16vectorIbNS_9allocatorIbEEEixB7v160006Em, symObjAddr: 0x402C, symBinAddr: 0x100004624, symSize: 0x3C }
  - { offsetInCU: 0x1E842, offset: 0x1E842, size: 0x8, addend: 0x0, symName: __ZNSt3__115__bit_referenceINS_6vectorIbNS_9allocatorIbEEEELb1EEaSB7v160006Eb, symObjAddr: 0x4068, symBinAddr: 0x100004660, symSize: 0x6C }
  - { offsetInCU: 0x1E876, offset: 0x1E876, size: 0x8, addend: 0x0, symName: __ZNSt3__15queueIiNS_5dequeIiNS_9allocatorIiEEEEE4pushB7v160006ERKi, symObjAddr: 0x40D4, symBinAddr: 0x1000046CC, symSize: 0x2C }
  - { offsetInCU: 0x1E8AB, offset: 0x1E8AB, size: 0x8, addend: 0x0, symName: __ZNKSt3__15queueIiNS_5dequeIiNS_9allocatorIiEEEEE5emptyB7v160006Ev, symObjAddr: 0x4100, symBinAddr: 0x1000046F8, symSize: 0x28 }
  - { offsetInCU: 0x1E8D1, offset: 0x1E8D1, size: 0x8, addend: 0x0, symName: __ZNSt3__15queueIiNS_5dequeIiNS_9allocatorIiEEEEE5frontB7v160006Ev, symObjAddr: 0x4128, symBinAddr: 0x100004720, symSize: 0x24 }
  - { offsetInCU: 0x1E8F7, offset: 0x1E8F7, size: 0x8, addend: 0x0, symName: __ZNSt3__15queueIiNS_5dequeIiNS_9allocatorIiEEEEE3popB7v160006Ev, symObjAddr: 0x414C, symBinAddr: 0x100004744, symSize: 0x24 }
  - { offsetInCU: 0x1E91D, offset: 0x1E91D, size: 0x8, addend: 0x0, symName: __ZNKSt3__115__bit_referenceINS_6vectorIbNS_9allocatorIbEEEELb1EEcvbB7v160006Ev, symObjAddr: 0x4170, symBinAddr: 0x100004768, symSize: 0x2C }
  - { offsetInCU: 0x1E943, offset: 0x1E943, size: 0x8, addend: 0x0, symName: __ZNSt3__16vectorIbNS_9allocatorIbEEED1B7v160006Ev, symObjAddr: 0x41D8, symBinAddr: 0x1000047D0, symSize: 0x2C }
  - { offsetInCU: 0x1E96D, offset: 0x1E96D, size: 0x8, addend: 0x0, symName: __ZNSt3__15queueIiNS_5dequeIiNS_9allocatorIiEEEEED1Ev, symObjAddr: 0x4204, symBinAddr: 0x1000047FC, symSize: 0x2C }
  - { offsetInCU: 0x1E99A, offset: 0x1E99A, size: 0x8, addend: 0x0, symName: __ZNSt3__15queueIiNS_5dequeIiNS_9allocatorIiEEEEEC2B7v160006Ev, symObjAddr: 0x4230, symBinAddr: 0x100004828, symSize: 0x2C }
  - { offsetInCU: 0x1E9C4, offset: 0x1E9C4, size: 0x8, addend: 0x0, symName: __ZNSt3__15dequeIiNS_9allocatorIiEEEC1B7v160006Ev, symObjAddr: 0x425C, symBinAddr: 0x100004854, symSize: 0x2C }
  - { offsetInCU: 0x1E9EE, offset: 0x1E9EE, size: 0x8, addend: 0x0, symName: __ZNSt3__15dequeIiNS_9allocatorIiEEEC2B7v160006Ev, symObjAddr: 0x4288, symBinAddr: 0x100004880, symSize: 0x78 }
  - { offsetInCU: 0x1EA18, offset: 0x1EA18, size: 0x8, addend: 0x0, symName: __ZNSt3__114__split_bufferIPiNS_9allocatorIS1_EEEC1Ev, symObjAddr: 0x4300, symBinAddr: 0x1000048F8, symSize: 0x2C }
  - { offsetInCU: 0x1EA50, offset: 0x1EA50, size: 0x8, addend: 0x0, symName: __ZNSt3__117__compressed_pairImNS_9allocatorIiEEEC1B7v160006IiNS_18__default_init_tagEEEOT_OT0_, symObjAddr: 0x432C, symBinAddr: 0x100004924, symSize: 0x3C }
  - { offsetInCU: 0x1EAA8, offset: 0x1EAA8, size: 0x8, addend: 0x0, symName: __ZNSt3__114__split_bufferIPiNS_9allocatorIS1_EEED1Ev, symObjAddr: 0x4368, symBinAddr: 0x100004960, symSize: 0x2C }
  - { offsetInCU: 0x1EAD4, offset: 0x1EAD4, size: 0x8, addend: 0x0, symName: __ZNSt3__114__split_bufferIPiNS_9allocatorIS1_EEEC2Ev, symObjAddr: 0x4394, symBinAddr: 0x10000498C, symSize: 0x48 }
  - { offsetInCU: 0x1EB06, offset: 0x1EB06, size: 0x8, addend: 0x0, symName: __ZNSt3__117__compressed_pairIPPiNS_9allocatorIS1_EEEC1B7v160006IDnNS_18__default_init_tagEEEOT_OT0_, symObjAddr: 0x43DC, symBinAddr: 0x1000049D4, symSize: 0x3C }
  - { offsetInCU: 0x1EB5E, offset: 0x1EB5E, size: 0x8, addend: 0x0, symName: __ZNSt3__117__compressed_pairIPPiNS_9allocatorIS1_EEEC2B7v160006IDnNS_18__default_init_tagEEEOT_OT0_, symObjAddr: 0x4418, symBinAddr: 0x100004A10, symSize: 0x40 }
  - { offsetInCU: 0x1EBB6, offset: 0x1EBB6, size: 0x8, addend: 0x0, symName: __ZNSt3__122__compressed_pair_elemIPPiLi0ELb0EEC2B7v160006IDnvEEOT_, symObjAddr: 0x4458, symBinAddr: 0x100004A50, symSize: 0x1C }
  - { offsetInCU: 0x1EBF8, offset: 0x1EBF8, size: 0x8, addend: 0x0, symName: __ZNSt3__122__compressed_pair_elemINS_9allocatorIPiEELi1ELb1EEC2B7v160006ENS_18__default_init_tagE, symObjAddr: 0x4474, symBinAddr: 0x100004A6C, symSize: 0x2C }
  - { offsetInCU: 0x1EC2C, offset: 0x1EC2C, size: 0x8, addend: 0x0, symName: __ZNSt3__19allocatorIPiEC2B7v160006Ev, symObjAddr: 0x44A0, symBinAddr: 0x100004A98, symSize: 0x2C }
  - { offsetInCU: 0x1EC56, offset: 0x1EC56, size: 0x8, addend: 0x0, symName: __ZNSt3__116__non_trivial_ifILb1ENS_9allocatorIPiEEEC2B7v160006Ev, symObjAddr: 0x44CC, symBinAddr: 0x100004AC4, symSize: 0x14 }
  - { offsetInCU: 0x1EC80, offset: 0x1EC80, size: 0x8, addend: 0x0, symName: __ZNSt3__117__compressed_pairImNS_9allocatorIiEEEC2B7v160006IiNS_18__default_init_tagEEEOT_OT0_, symObjAddr: 0x44E0, symBinAddr: 0x100004AD8, symSize: 0x40 }
  - { offsetInCU: 0x1ECD8, offset: 0x1ECD8, size: 0x8, addend: 0x0, symName: __ZNSt3__122__compressed_pair_elemImLi0ELb0EEC2B7v160006IivEEOT_, symObjAddr: 0x4520, symBinAddr: 0x100004B18, symSize: 0x24 }
  - { offsetInCU: 0x1ED1A, offset: 0x1ED1A, size: 0x8, addend: 0x0, symName: __ZNSt3__122__compressed_pair_elemINS_9allocatorIiEELi1ELb1EEC2B7v160006ENS_18__default_init_tagE, symObjAddr: 0x4544, symBinAddr: 0x100004B3C, symSize: 0x2C }
  - { offsetInCU: 0x1ED4E, offset: 0x1ED4E, size: 0x8, addend: 0x0, symName: __ZNSt3__19allocatorIiEC2B7v160006Ev, symObjAddr: 0x4570, symBinAddr: 0x100004B68, symSize: 0x2C }
  - { offsetInCU: 0x1ED78, offset: 0x1ED78, size: 0x8, addend: 0x0, symName: __ZNSt3__116__non_trivial_ifILb1ENS_9allocatorIiEEEC2B7v160006Ev, symObjAddr: 0x459C, symBinAddr: 0x100004B94, symSize: 0x14 }
  - { offsetInCU: 0x1EDA2, offset: 0x1EDA2, size: 0x8, addend: 0x0, symName: __ZNSt3__114__split_bufferIPiNS_9allocatorIS1_EEED2Ev, symObjAddr: 0x45B0, symBinAddr: 0x100004BA8, symSize: 0x80 }
  - { offsetInCU: 0x1EDCE, offset: 0x1EDCE, size: 0x8, addend: 0x0, symName: __ZNSt3__114__split_bufferIPiNS_9allocatorIS1_EEE5clearB7v160006Ev, symObjAddr: 0x4630, symBinAddr: 0x100004C28, symSize: 0x28 }
  - { offsetInCU: 0x1EDF4, offset: 0x1EDF4, size: 0x8, addend: 0x0, symName: __ZNSt3__116allocator_traitsINS_9allocatorIPiEEE10deallocateB7v160006ERS3_PS2_m, symObjAddr: 0x4658, symBinAddr: 0x100004C50, symSize: 0x34 }
  - { offsetInCU: 0x1EE36, offset: 0x1EE36, size: 0x8, addend: 0x0, symName: __ZNSt3__114__split_bufferIPiNS_9allocatorIS1_EEE7__allocB7v160006Ev, symObjAddr: 0x468C, symBinAddr: 0x100004C84, symSize: 0x28 }
  - { offsetInCU: 0x1EE5C, offset: 0x1EE5C, size: 0x8, addend: 0x0, symName: __ZNKSt3__114__split_bufferIPiNS_9allocatorIS1_EEE8capacityB7v160006Ev, symObjAddr: 0x46B4, symBinAddr: 0x100004CAC, symSize: 0x40 }
  - { offsetInCU: 0x1EE82, offset: 0x1EE82, size: 0x8, addend: 0x0, symName: __ZNSt3__114__split_bufferIPiNS_9allocatorIS1_EEE17__destruct_at_endB7v160006EPS1_, symObjAddr: 0x46F4, symBinAddr: 0x100004CEC, symSize: 0x2C }
  - { offsetInCU: 0x1EEB6, offset: 0x1EEB6, size: 0x8, addend: 0x0, symName: __ZNSt3__114__split_bufferIPiNS_9allocatorIS1_EEE17__destruct_at_endB7v160006EPS1_NS_17integral_constantIbLb0EEE, symObjAddr: 0x4720, symBinAddr: 0x100004D18, symSize: 0x94 }
  - { offsetInCU: 0x1EEF6, offset: 0x1EEF6, size: 0x8, addend: 0x0, symName: __ZNSt3__116allocator_traitsINS_9allocatorIPiEEE7destroyB7v160006IS2_vEEvRS3_PT_, symObjAddr: 0x47B4, symBinAddr: 0x100004DAC, symSize: 0x2C }
  - { offsetInCU: 0x1EF33, offset: 0x1EF33, size: 0x8, addend: 0x0, symName: __ZNSt3__19allocatorIPiE7destroyB7v160006EPS1_, symObjAddr: 0x47F4, symBinAddr: 0x100004DEC, symSize: 0x14 }
  - { offsetInCU: 0x1EF67, offset: 0x1EF67, size: 0x8, addend: 0x0, symName: __ZNSt3__19allocatorIPiE10deallocateB7v160006EPS1_m, symObjAddr: 0x4808, symBinAddr: 0x100004E00, symSize: 0x70 }
  - { offsetInCU: 0x1EFA9, offset: 0x1EFA9, size: 0x8, addend: 0x0, symName: __ZNSt3__117__compressed_pairIPPiNS_9allocatorIS1_EEE6secondB7v160006Ev, symObjAddr: 0x4878, symBinAddr: 0x100004E70, symSize: 0x24 }
  - { offsetInCU: 0x1EFCF, offset: 0x1EFCF, size: 0x8, addend: 0x0, symName: __ZNSt3__122__compressed_pair_elemINS_9allocatorIPiEELi1ELb1EE5__getB7v160006Ev, symObjAddr: 0x489C, symBinAddr: 0x100004E94, symSize: 0x14 }
  - { offsetInCU: 0x1EFF5, offset: 0x1EFF5, size: 0x8, addend: 0x0, symName: __ZNKSt3__114__split_bufferIPiNS_9allocatorIS1_EEE9__end_capB7v160006Ev, symObjAddr: 0x48B0, symBinAddr: 0x100004EA8, symSize: 0x28 }
  - { offsetInCU: 0x1F01B, offset: 0x1F01B, size: 0x8, addend: 0x0, symName: __ZNKSt3__117__compressed_pairIPPiNS_9allocatorIS1_EEE5firstB7v160006Ev, symObjAddr: 0x48D8, symBinAddr: 0x100004ED0, symSize: 0x24 }
  - { offsetInCU: 0x1F041, offset: 0x1F041, size: 0x8, addend: 0x0, symName: __ZNKSt3__122__compressed_pair_elemIPPiLi0ELb0EE5__getB7v160006Ev, symObjAddr: 0x48FC, symBinAddr: 0x100004EF4, symSize: 0x14 }
  - { offsetInCU: 0x1F067, offset: 0x1F067, size: 0x8, addend: 0x0, symName: __ZNSt3__16vectorIiNS_9allocatorIiEEEC2EmRKi, symObjAddr: 0x4910, symBinAddr: 0x100004F08, symSize: 0xF0 }
  - { offsetInCU: 0x1F0C6, offset: 0x1F0C6, size: 0x8, addend: 0x0, symName: __ZNSt3__117__compressed_pairIPiNS_9allocatorIiEEEC1B7v160006IDnNS_18__default_init_tagEEEOT_OT0_, symObjAddr: 0x4A00, symBinAddr: 0x100004FF8, symSize: 0x3C }
  - { offsetInCU: 0x1F11E, offset: 0x1F11E, size: 0x8, addend: 0x0, symName: __ZNSt3__16vectorIiNS_9allocatorIiEEE16__destroy_vectorC1ERS3_, symObjAddr: 0x4A7C, symBinAddr: 0x100005074, symSize: 0x34 }
  - { offsetInCU: 0x1F157, offset: 0x1F157, size: 0x8, addend: 0x0, symName: __ZNSt3__16vectorIiNS_9allocatorIiEEE11__vallocateB7v160006Em, symObjAddr: 0x4AC0, symBinAddr: 0x1000050B8, symSize: 0xAC }
  - { offsetInCU: 0x1F19B, offset: 0x1F19B, size: 0x8, addend: 0x0, symName: __ZNSt3__16vectorIiNS_9allocatorIiEEE18__construct_at_endEmRKi, symObjAddr: 0x4B6C, symBinAddr: 0x100005164, symSize: 0xD8 }
  - { offsetInCU: 0x1F21C, offset: 0x1F21C, size: 0x8, addend: 0x0, symName: __ZNSt3__128__exception_guard_exceptionsINS_6vectorIiNS_9allocatorIiEEE16__destroy_vectorEE10__completeB7v160006Ev, symObjAddr: 0x4C44, symBinAddr: 0x10000523C, symSize: 0x1C }
  - { offsetInCU: 0x1F242, offset: 0x1F242, size: 0x8, addend: 0x0, symName: __ZNSt3__128__exception_guard_exceptionsINS_6vectorIiNS_9allocatorIiEEE16__destroy_vectorEED1B7v160006Ev, symObjAddr: 0x4C60, symBinAddr: 0x100005258, symSize: 0x2C }
  - { offsetInCU: 0x1F26C, offset: 0x1F26C, size: 0x8, addend: 0x0, symName: __ZNSt3__117__compressed_pairIPiNS_9allocatorIiEEEC2B7v160006IDnNS_18__default_init_tagEEEOT_OT0_, symObjAddr: 0x4C8C, symBinAddr: 0x100005284, symSize: 0x40 }
  - { offsetInCU: 0x1F2C4, offset: 0x1F2C4, size: 0x8, addend: 0x0, symName: __ZNSt3__122__compressed_pair_elemIPiLi0ELb0EEC2B7v160006IDnvEEOT_, symObjAddr: 0x4CCC, symBinAddr: 0x1000052C4, symSize: 0x1C }
  - { offsetInCU: 0x1F306, offset: 0x1F306, size: 0x8, addend: 0x0, symName: __ZNSt3__128__exception_guard_exceptionsINS_6vectorIiNS_9allocatorIiEEE16__destroy_vectorEEC1B7v160006ES5_, symObjAddr: 0x4CE8, symBinAddr: 0x1000052E0, symSize: 0x34 }
  - { offsetInCU: 0x1F33E, offset: 0x1F33E, size: 0x8, addend: 0x0, symName: __ZNSt3__128__exception_guard_exceptionsINS_6vectorIiNS_9allocatorIiEEE16__destroy_vectorEEC2B7v160006ES5_, symObjAddr: 0x4D1C, symBinAddr: 0x100005314, symSize: 0x24 }
  - { offsetInCU: 0x1F376, offset: 0x1F376, size: 0x8, addend: 0x0, symName: __ZNSt3__16vectorIiNS_9allocatorIiEEE16__destroy_vectorC2ERS3_, symObjAddr: 0x4D40, symBinAddr: 0x100005338, symSize: 0x20 }
  - { offsetInCU: 0x1F3AF, offset: 0x1F3AF, size: 0x8, addend: 0x0, symName: __ZNKSt3__16vectorIiNS_9allocatorIiEEE8max_sizeEv, symObjAddr: 0x4D60, symBinAddr: 0x100005358, symSize: 0x74 }
  - { offsetInCU: 0x1F3D7, offset: 0x1F3D7, size: 0x8, addend: 0x0, symName: __ZNKSt3__16vectorIiNS_9allocatorIiEEE20__throw_length_errorB7v160006Ev, symObjAddr: 0x4DD4, symBinAddr: 0x1000053CC, symSize: 0x1C }
  - { offsetInCU: 0x1F3FD, offset: 0x1F3FD, size: 0x8, addend: 0x0, symName: __ZNSt3__16vectorIiNS_9allocatorIiEEE7__allocB7v160006Ev, symObjAddr: 0x4E30, symBinAddr: 0x100005428, symSize: 0x28 }
  - { offsetInCU: 0x1F423, offset: 0x1F423, size: 0x8, addend: 0x0, symName: __ZNSt3__16vectorIiNS_9allocatorIiEEE9__end_capB7v160006Ev, symObjAddr: 0x4E58, symBinAddr: 0x100005450, symSize: 0x28 }
  - { offsetInCU: 0x1F449, offset: 0x1F449, size: 0x8, addend: 0x0, symName: __ZNKSt3__16vectorIiNS_9allocatorIiEEE14__annotate_newB7v160006Em, symObjAddr: 0x4E80, symBinAddr: 0x100005478, symSize: 0xAC }
  - { offsetInCU: 0x1F489, offset: 0x1F489, size: 0x8, addend: 0x0, symName: __ZNSt3__116allocator_traitsINS_9allocatorIiEEE8max_sizeB7v160006IS2_vEEmRKS2_, symObjAddr: 0x4F58, symBinAddr: 0x100005550, symSize: 0x24 }
  - { offsetInCU: 0x1F4B7, offset: 0x1F4B7, size: 0x8, addend: 0x0, symName: __ZNKSt3__16vectorIiNS_9allocatorIiEEE7__allocB7v160006Ev, symObjAddr: 0x4F7C, symBinAddr: 0x100005574, symSize: 0x28 }
  - { offsetInCU: 0x1F4DD, offset: 0x1F4DD, size: 0x8, addend: 0x0, symName: __ZNSt3__114numeric_limitsIlE3maxB7v160006Ev, symObjAddr: 0x4FA4, symBinAddr: 0x10000559C, symSize: 0x14 }
  - { offsetInCU: 0x1F4FB, offset: 0x1F4FB, size: 0x8, addend: 0x0, symName: __ZNKSt3__16__lessImmEclB7v160006ERKmS3_, symObjAddr: 0x500C, symBinAddr: 0x100005604, symSize: 0x34 }
  - { offsetInCU: 0x1F53D, offset: 0x1F53D, size: 0x8, addend: 0x0, symName: __ZNKSt3__19allocatorIiE8max_sizeB7v160006Ev, symObjAddr: 0x5040, symBinAddr: 0x100005638, symSize: 0x14 }
  - { offsetInCU: 0x1F563, offset: 0x1F563, size: 0x8, addend: 0x0, symName: __ZNKSt3__117__compressed_pairIPiNS_9allocatorIiEEE6secondB7v160006Ev, symObjAddr: 0x5054, symBinAddr: 0x10000564C, symSize: 0x24 }
  - { offsetInCU: 0x1F589, offset: 0x1F589, size: 0x8, addend: 0x0, symName: __ZNKSt3__122__compressed_pair_elemINS_9allocatorIiEELi1ELb1EE5__getB7v160006Ev, symObjAddr: 0x5078, symBinAddr: 0x100005670, symSize: 0x14 }
  - { offsetInCU: 0x1F5AF, offset: 0x1F5AF, size: 0x8, addend: 0x0, symName: __ZNSt3__123__libcpp_numeric_limitsIlLb1EE3maxB7v160006Ev, symObjAddr: 0x508C, symBinAddr: 0x100005684, symSize: 0x8 }
  - { offsetInCU: 0x1F5C3, offset: 0x1F5C3, size: 0x8, addend: 0x0, symName: __ZNSt12length_errorC1B7v160006EPKc, symObjAddr: 0x50F8, symBinAddr: 0x1000056F0, symSize: 0x34 }
  - { offsetInCU: 0x1F5FB, offset: 0x1F5FB, size: 0x8, addend: 0x0, symName: __ZNSt12length_errorC2B7v160006EPKc, symObjAddr: 0x512C, symBinAddr: 0x100005724, symSize: 0x4C }
  - { offsetInCU: 0x1F633, offset: 0x1F633, size: 0x8, addend: 0x0, symName: __ZNSt3__19allocatorIiE8allocateB7v160006Em, symObjAddr: 0x5178, symBinAddr: 0x100005770, symSize: 0x84 }
  - { offsetInCU: 0x1F667, offset: 0x1F667, size: 0x8, addend: 0x0, symName: __ZNSt3__117__compressed_pairIPiNS_9allocatorIiEEE6secondB7v160006Ev, symObjAddr: 0x51FC, symBinAddr: 0x1000057F4, symSize: 0x24 }
  - { offsetInCU: 0x1F68D, offset: 0x1F68D, size: 0x8, addend: 0x0, symName: __ZNSt3__122__compressed_pair_elemINS_9allocatorIiEELi1ELb1EE5__getB7v160006Ev, symObjAddr: 0x5220, symBinAddr: 0x100005818, symSize: 0x14 }
  - { offsetInCU: 0x1F6B3, offset: 0x1F6B3, size: 0x8, addend: 0x0, symName: __ZNSt3__117__compressed_pairIPiNS_9allocatorIiEEE5firstB7v160006Ev, symObjAddr: 0x5234, symBinAddr: 0x10000582C, symSize: 0x24 }
  - { offsetInCU: 0x1F6D9, offset: 0x1F6D9, size: 0x8, addend: 0x0, symName: __ZNSt3__122__compressed_pair_elemIPiLi0ELb0EE5__getB7v160006Ev, symObjAddr: 0x5258, symBinAddr: 0x100005850, symSize: 0x14 }
  - { offsetInCU: 0x1F6FF, offset: 0x1F6FF, size: 0x8, addend: 0x0, symName: __ZNKSt3__16vectorIiNS_9allocatorIiEEE31__annotate_contiguous_containerB7v160006EPKvS5_S5_S5_, symObjAddr: 0x526C, symBinAddr: 0x100005864, symSize: 0x20 }
  - { offsetInCU: 0x1F751, offset: 0x1F751, size: 0x8, addend: 0x0, symName: __ZNKSt3__16vectorIiNS_9allocatorIiEEE4dataB7v160006Ev, symObjAddr: 0x528C, symBinAddr: 0x100005884, symSize: 0x28 }
  - { offsetInCU: 0x1F777, offset: 0x1F777, size: 0x8, addend: 0x0, symName: __ZNKSt3__16vectorIiNS_9allocatorIiEEE8capacityB7v160006Ev, symObjAddr: 0x52B4, symBinAddr: 0x1000058AC, symSize: 0x40 }
  - { offsetInCU: 0x1F79D, offset: 0x1F79D, size: 0x8, addend: 0x0, symName: __ZNKSt3__16vectorIiNS_9allocatorIiEEE9__end_capB7v160006Ev, symObjAddr: 0x5308, symBinAddr: 0x100005900, symSize: 0x28 }
  - { offsetInCU: 0x1F7C3, offset: 0x1F7C3, size: 0x8, addend: 0x0, symName: __ZNKSt3__117__compressed_pairIPiNS_9allocatorIiEEE5firstB7v160006Ev, symObjAddr: 0x5330, symBinAddr: 0x100005928, symSize: 0x24 }
  - { offsetInCU: 0x1F7E9, offset: 0x1F7E9, size: 0x8, addend: 0x0, symName: __ZNKSt3__122__compressed_pair_elemIPiLi0ELb0EE5__getB7v160006Ev, symObjAddr: 0x5354, symBinAddr: 0x10000594C, symSize: 0x14 }
  - { offsetInCU: 0x1F82A, offset: 0x1F82A, size: 0x8, addend: 0x0, symName: __ZNSt3__16vectorIiNS_9allocatorIiEEE21_ConstructTransactionC1B7v160006ERS3_m, symObjAddr: 0x5368, symBinAddr: 0x100005960, symSize: 0x3C }
  - { offsetInCU: 0x1F872, offset: 0x1F872, size: 0x8, addend: 0x0, symName: __ZNSt3__116allocator_traitsINS_9allocatorIiEEE9constructB7v160006IiJRKiEvEEvRS2_PT_DpOT0_, symObjAddr: 0x53A4, symBinAddr: 0x10000599C, symSize: 0x34 }
  - { offsetInCU: 0x1F8C9, offset: 0x1F8C9, size: 0x8, addend: 0x0, symName: __ZNSt3__16vectorIiNS_9allocatorIiEEE21_ConstructTransactionD1B7v160006Ev, symObjAddr: 0x53D8, symBinAddr: 0x1000059D0, symSize: 0x2C }
  - { offsetInCU: 0x1F8F3, offset: 0x1F8F3, size: 0x8, addend: 0x0, symName: __ZNSt3__16vectorIiNS_9allocatorIiEEE21_ConstructTransactionC2B7v160006ERS3_m, symObjAddr: 0x5404, symBinAddr: 0x1000059FC, symSize: 0x44 }
  - { offsetInCU: 0x1F93B, offset: 0x1F93B, size: 0x8, addend: 0x0, symName: __ZNSt3__19allocatorIiE9constructB7v160006IiJRKiEEEvPT_DpOT0_, symObjAddr: 0x5448, symBinAddr: 0x100005A40, symSize: 0x28 }
  - { offsetInCU: 0x1F991, offset: 0x1F991, size: 0x8, addend: 0x0, symName: __ZNSt3__16vectorIiNS_9allocatorIiEEE21_ConstructTransactionD2B7v160006Ev, symObjAddr: 0x5470, symBinAddr: 0x100005A68, symSize: 0x20 }
  - { offsetInCU: 0x1F9BB, offset: 0x1F9BB, size: 0x8, addend: 0x0, symName: __ZNSt3__128__exception_guard_exceptionsINS_6vectorIiNS_9allocatorIiEEE16__destroy_vectorEED2B7v160006Ev, symObjAddr: 0x5490, symBinAddr: 0x100005A88, symSize: 0x48 }
  - { offsetInCU: 0x1F9E5, offset: 0x1F9E5, size: 0x8, addend: 0x0, symName: __ZNSt3__16vectorIiNS_9allocatorIiEEE16__destroy_vectorclB7v160006Ev, symObjAddr: 0x54D8, symBinAddr: 0x100005AD0, symSize: 0x9C }
  - { offsetInCU: 0x1FA0B, offset: 0x1FA0B, size: 0x8, addend: 0x0, symName: __ZNKSt3__16vectorIiNS_9allocatorIiEEE17__annotate_deleteB7v160006Ev, symObjAddr: 0x5574, symBinAddr: 0x100005B6C, symSize: 0xB8 }
  - { offsetInCU: 0x1FA31, offset: 0x1FA31, size: 0x8, addend: 0x0, symName: __ZNSt3__16vectorIiNS_9allocatorIiEEE7__clearB7v160006Ev, symObjAddr: 0x563C, symBinAddr: 0x100005C34, symSize: 0x28 }
  - { offsetInCU: 0x1FA57, offset: 0x1FA57, size: 0x8, addend: 0x0, symName: __ZNSt3__116allocator_traitsINS_9allocatorIiEEE10deallocateB7v160006ERS2_Pim, symObjAddr: 0x5664, symBinAddr: 0x100005C5C, symSize: 0x34 }
  - { offsetInCU: 0x1FA99, offset: 0x1FA99, size: 0x8, addend: 0x0, symName: __ZNSt3__16vectorIiNS_9allocatorIiEEE22__base_destruct_at_endB7v160006EPi, symObjAddr: 0x5698, symBinAddr: 0x100005C90, symSize: 0xA0 }
  - { offsetInCU: 0x1FADD, offset: 0x1FADD, size: 0x8, addend: 0x0, symName: __ZNSt3__116allocator_traitsINS_9allocatorIiEEE7destroyB7v160006IivEEvRS2_PT_, symObjAddr: 0x5738, symBinAddr: 0x100005D30, symSize: 0x2C }
  - { offsetInCU: 0x1FB1A, offset: 0x1FB1A, size: 0x8, addend: 0x0, symName: __ZNSt3__19allocatorIiE7destroyB7v160006EPi, symObjAddr: 0x5764, symBinAddr: 0x100005D5C, symSize: 0x14 }
  - { offsetInCU: 0x1FB4E, offset: 0x1FB4E, size: 0x8, addend: 0x0, symName: __ZNSt3__19allocatorIiE10deallocateB7v160006EPim, symObjAddr: 0x5778, symBinAddr: 0x100005D70, symSize: 0x70 }
  - { offsetInCU: 0x1FB90, offset: 0x1FB90, size: 0x8, addend: 0x0, symName: __ZNSt3__16vectorIbNS_9allocatorIbEEEC2EmRKb, symObjAddr: 0x57E8, symBinAddr: 0x100005DE0, symSize: 0x90 }
  - { offsetInCU: 0x1FBDA, offset: 0x1FBDA, size: 0x8, addend: 0x0, symName: __ZNSt3__117__compressed_pairImNS_9allocatorImEEEC1B7v160006IiNS_18__default_init_tagEEEOT_OT0_, symObjAddr: 0x5878, symBinAddr: 0x100005E70, symSize: 0x3C }
  - { offsetInCU: 0x1FC32, offset: 0x1FC32, size: 0x8, addend: 0x0, symName: __ZNSt3__16vectorIbNS_9allocatorIbEEE11__vallocateB7v160006Em, symObjAddr: 0x58B4, symBinAddr: 0x100005EAC, symSize: 0x10C }
  - { offsetInCU: 0x1FC93, offset: 0x1FC93, size: 0x8, addend: 0x0, symName: __ZNSt3__16vectorIbNS_9allocatorIbEEE18__construct_at_endB7v160006Emb, symObjAddr: 0x59C0, symBinAddr: 0x100005FB8, symSize: 0x108 }
  - { offsetInCU: 0x1FCE8, offset: 0x1FCE8, size: 0x8, addend: 0x0, symName: __ZNSt3__117__compressed_pairImNS_9allocatorImEEEC2B7v160006IiNS_18__default_init_tagEEEOT_OT0_, symObjAddr: 0x5AC8, symBinAddr: 0x1000060C0, symSize: 0x40 }
  - { offsetInCU: 0x1FD40, offset: 0x1FD40, size: 0x8, addend: 0x0, symName: __ZNSt3__122__compressed_pair_elemINS_9allocatorImEELi1ELb1EEC2B7v160006ENS_18__default_init_tagE, symObjAddr: 0x5B08, symBinAddr: 0x100006100, symSize: 0x2C }
  - { offsetInCU: 0x1FD74, offset: 0x1FD74, size: 0x8, addend: 0x0, symName: __ZNSt3__19allocatorImEC2B7v160006Ev, symObjAddr: 0x5B34, symBinAddr: 0x10000612C, symSize: 0x2C }
  - { offsetInCU: 0x1FD9E, offset: 0x1FD9E, size: 0x8, addend: 0x0, symName: __ZNSt3__116__non_trivial_ifILb1ENS_9allocatorImEEEC2B7v160006Ev, symObjAddr: 0x5B60, symBinAddr: 0x100006158, symSize: 0x14 }
  - { offsetInCU: 0x1FDC8, offset: 0x1FDC8, size: 0x8, addend: 0x0, symName: __ZNKSt3__16vectorIbNS_9allocatorIbEEE8max_sizeEv, symObjAddr: 0x5B74, symBinAddr: 0x10000616C, symSize: 0x7C }
  - { offsetInCU: 0x1FE0E, offset: 0x1FE0E, size: 0x8, addend: 0x0, symName: __ZNKSt3__16vectorIbNS_9allocatorIbEEE20__throw_length_errorB7v160006Ev, symObjAddr: 0x5BF0, symBinAddr: 0x1000061E8, symSize: 0x1C }
  - { offsetInCU: 0x1FE34, offset: 0x1FE34, size: 0x8, addend: 0x0, symName: __ZNSt3__16vectorIbNS_9allocatorIbEEE7__allocB7v160006Ev, symObjAddr: 0x5C4C, symBinAddr: 0x100006244, symSize: 0x28 }
  - { offsetInCU: 0x1FE5A, offset: 0x1FE5A, size: 0x8, addend: 0x0, symName: __ZNSt3__16vectorIbNS_9allocatorIbEEE26__external_cap_to_internalB7v160006Em, symObjAddr: 0x5C74, symBinAddr: 0x10000626C, symSize: 0x24 }
  - { offsetInCU: 0x1FE7E, offset: 0x1FE7E, size: 0x8, addend: 0x0, symName: __ZNSt3__16vectorIbNS_9allocatorIbEEE5__capB7v160006Ev, symObjAddr: 0x5C98, symBinAddr: 0x100006290, symSize: 0x28 }
  - { offsetInCU: 0x1FEAF, offset: 0x1FEAF, size: 0x8, addend: 0x0, symName: __ZNSt3__116allocator_traitsINS_9allocatorImEEE8max_sizeB7v160006IS2_vEEmRKS2_, symObjAddr: 0x5CF4, symBinAddr: 0x1000062EC, symSize: 0x24 }
  - { offsetInCU: 0x1FEDD, offset: 0x1FEDD, size: 0x8, addend: 0x0, symName: __ZNKSt3__16vectorIbNS_9allocatorIbEEE7__allocB7v160006Ev, symObjAddr: 0x5D18, symBinAddr: 0x100006310, symSize: 0x28 }
  - { offsetInCU: 0x1FF03, offset: 0x1FF03, size: 0x8, addend: 0x0, symName: __ZNSt3__114numeric_limitsImE3maxB7v160006Ev, symObjAddr: 0x5D40, symBinAddr: 0x100006338, symSize: 0x14 }
  - { offsetInCU: 0x1FF17, offset: 0x1FF17, size: 0x8, addend: 0x0, symName: __ZNSt3__16vectorIbNS_9allocatorIbEEE26__internal_cap_to_externalB7v160006Em, symObjAddr: 0x5D54, symBinAddr: 0x10000634C, symSize: 0x18 }
  - { offsetInCU: 0x1FF3B, offset: 0x1FF3B, size: 0x8, addend: 0x0, symName: __ZNKSt3__19allocatorImE8max_sizeB7v160006Ev, symObjAddr: 0x5D6C, symBinAddr: 0x100006364, symSize: 0x14 }
  - { offsetInCU: 0x1FF61, offset: 0x1FF61, size: 0x8, addend: 0x0, symName: __ZNKSt3__117__compressed_pairImNS_9allocatorImEEE6secondB7v160006Ev, symObjAddr: 0x5D80, symBinAddr: 0x100006378, symSize: 0x24 }
  - { offsetInCU: 0x1FF87, offset: 0x1FF87, size: 0x8, addend: 0x0, symName: __ZNKSt3__122__compressed_pair_elemINS_9allocatorImEELi1ELb1EE5__getB7v160006Ev, symObjAddr: 0x5DA4, symBinAddr: 0x10000639C, symSize: 0x14 }
  - { offsetInCU: 0x1FFAD, offset: 0x1FFAD, size: 0x8, addend: 0x0, symName: __ZNSt3__123__libcpp_numeric_limitsImLb1EE3maxB7v160006Ev, symObjAddr: 0x5DB8, symBinAddr: 0x1000063B0, symSize: 0x8 }
  - { offsetInCU: 0x1FFC1, offset: 0x1FFC1, size: 0x8, addend: 0x0, symName: __ZNSt3__19allocatorImE8allocateB7v160006Em, symObjAddr: 0x5DC0, symBinAddr: 0x1000063B8, symSize: 0x84 }
  - { offsetInCU: 0x1FFF5, offset: 0x1FFF5, size: 0x8, addend: 0x0, symName: __ZNSt3__117__compressed_pairImNS_9allocatorImEEE6secondB7v160006Ev, symObjAddr: 0x5E44, symBinAddr: 0x10000643C, symSize: 0x24 }
  - { offsetInCU: 0x2001B, offset: 0x2001B, size: 0x8, addend: 0x0, symName: __ZNSt3__122__compressed_pair_elemINS_9allocatorImEELi1ELb1EE5__getB7v160006Ev, symObjAddr: 0x5E68, symBinAddr: 0x100006460, symSize: 0x14 }
  - { offsetInCU: 0x20041, offset: 0x20041, size: 0x8, addend: 0x0, symName: __ZNSt3__117__compressed_pairImNS_9allocatorImEEE5firstB7v160006Ev, symObjAddr: 0x5E7C, symBinAddr: 0x100006474, symSize: 0x24 }
  - { offsetInCU: 0x20067, offset: 0x20067, size: 0x8, addend: 0x0, symName: __ZNSt3__16vectorIbNS_9allocatorIbEEE11__make_iterB7v160006Em, symObjAddr: 0x5F34, symBinAddr: 0x10000652C, symSize: 0x64 }
  - { offsetInCU: 0x2009C, offset: 0x2009C, size: 0x8, addend: 0x0, symName: __ZNSt3__114__bit_iteratorINS_6vectorIbNS_9allocatorIbEEEELb0ELm0EEC1B7v160006ERKS5_, symObjAddr: 0x60F8, symBinAddr: 0x1000066F0, symSize: 0x34 }
  - { offsetInCU: 0x200D5, offset: 0x200D5, size: 0x8, addend: 0x0, symName: __ZNSt3__114__bit_iteratorINS_6vectorIbNS_9allocatorIbEEEELb0ELm0EEC2B7v160006ERKS5_, symObjAddr: 0x6344, symBinAddr: 0x10000693C, symSize: 0x30 }
  - { offsetInCU: 0x2010E, offset: 0x2010E, size: 0x8, addend: 0x0, symName: __ZNSt3__114__bit_iteratorINS_6vectorIbNS_9allocatorIbEEEELb0ELm0EEC1B7v160006EPmj, symObjAddr: 0x641C, symBinAddr: 0x100006A14, symSize: 0x3C }
  - { offsetInCU: 0x20156, offset: 0x20156, size: 0x8, addend: 0x0, symName: __ZNSt3__114__bit_iteratorINS_6vectorIbNS_9allocatorIbEEEELb0ELm0EEC2B7v160006EPmj, symObjAddr: 0x6458, symBinAddr: 0x100006A50, symSize: 0x2C }
  - { offsetInCU: 0x2019E, offset: 0x2019E, size: 0x8, addend: 0x0, symName: __ZNSt3__16vectorIbNS_9allocatorIbEEE10__make_refB7v160006Em, symObjAddr: 0x6484, symBinAddr: 0x100006A7C, symSize: 0x60 }
  - { offsetInCU: 0x201D3, offset: 0x201D3, size: 0x8, addend: 0x0, symName: __ZNSt3__115__bit_referenceINS_6vectorIbNS_9allocatorIbEEEELb1EEC1B7v160006EPmm, symObjAddr: 0x64E4, symBinAddr: 0x100006ADC, symSize: 0x3C }
  - { offsetInCU: 0x20219, offset: 0x20219, size: 0x8, addend: 0x0, symName: __ZNSt3__115__bit_referenceINS_6vectorIbNS_9allocatorIbEEEELb1EEC2B7v160006EPmm, symObjAddr: 0x6520, symBinAddr: 0x100006B18, symSize: 0x2C }
  - { offsetInCU: 0x2025F, offset: 0x2025F, size: 0x8, addend: 0x0, symName: __ZNSt3__15dequeIiNS_9allocatorIiEEE9push_backERKi, symObjAddr: 0x654C, symBinAddr: 0x100006B44, symSize: 0xA0 }
  - { offsetInCU: 0x202A5, offset: 0x202A5, size: 0x8, addend: 0x0, symName: __ZNSt3__15dequeIiNS_9allocatorIiEEE7__allocB7v160006Ev, symObjAddr: 0x65EC, symBinAddr: 0x100006BE4, symSize: 0x28 }
  - { offsetInCU: 0x202CB, offset: 0x202CB, size: 0x8, addend: 0x0, symName: __ZNKSt3__15dequeIiNS_9allocatorIiEEE12__back_spareB7v160006Ev, symObjAddr: 0x6614, symBinAddr: 0x100006C0C, symSize: 0x54 }
  - { offsetInCU: 0x202F1, offset: 0x202F1, size: 0x8, addend: 0x0, symName: __ZNSt3__15dequeIiNS_9allocatorIiEEE19__add_back_capacityEv, symObjAddr: 0x6668, symBinAddr: 0x100006C60, symSize: 0x32C }
  - { offsetInCU: 0x203A6, offset: 0x203A6, size: 0x8, addend: 0x0, symName: __ZNSt3__15dequeIiNS_9allocatorIiEEE3endB7v160006Ev, symObjAddr: 0x6994, symBinAddr: 0x100006F8C, symSize: 0xE0 }
  - { offsetInCU: 0x203EA, offset: 0x203EA, size: 0x8, addend: 0x0, symName: __ZNKSt3__116__deque_iteratorIiPiRiPS1_lLl1024EEdeB7v160006Ev, symObjAddr: 0x6A74, symBinAddr: 0x10000706C, symSize: 0x18 }
  - { offsetInCU: 0x20410, offset: 0x20410, size: 0x8, addend: 0x0, symName: __ZNSt3__15dequeIiNS_9allocatorIiEEE6__sizeB7v160006Ev, symObjAddr: 0x6A8C, symBinAddr: 0x100007084, symSize: 0x28 }
  - { offsetInCU: 0x20436, offset: 0x20436, size: 0x8, addend: 0x0, symName: __ZNSt3__117__compressed_pairImNS_9allocatorIiEEE6secondB7v160006Ev, symObjAddr: 0x6AB4, symBinAddr: 0x1000070AC, symSize: 0x24 }
  - { offsetInCU: 0x2045C, offset: 0x2045C, size: 0x8, addend: 0x0, symName: __ZNKSt3__15dequeIiNS_9allocatorIiEEE10__capacityB7v160006Ev, symObjAddr: 0x6AD8, symBinAddr: 0x1000070D0, symSize: 0x60 }
  - { offsetInCU: 0x20482, offset: 0x20482, size: 0x8, addend: 0x0, symName: __ZNKSt3__15dequeIiNS_9allocatorIiEEE4sizeB7v160006Ev, symObjAddr: 0x6B38, symBinAddr: 0x100007130, symSize: 0x28 }
  - { offsetInCU: 0x204A8, offset: 0x204A8, size: 0x8, addend: 0x0, symName: __ZNKSt3__114__split_bufferIPiNS_9allocatorIS1_EEE4sizeB7v160006Ev, symObjAddr: 0x6B60, symBinAddr: 0x100007158, symSize: 0x28 }
  - { offsetInCU: 0x204CE, offset: 0x204CE, size: 0x8, addend: 0x0, symName: __ZNKSt3__15dequeIiNS_9allocatorIiEEE6__sizeB7v160006Ev, symObjAddr: 0x6B88, symBinAddr: 0x100007180, symSize: 0x28 }
  - { offsetInCU: 0x204F4, offset: 0x204F4, size: 0x8, addend: 0x0, symName: __ZNKSt3__117__compressed_pairImNS_9allocatorIiEEE5firstB7v160006Ev, symObjAddr: 0x6BB0, symBinAddr: 0x1000071A8, symSize: 0x24 }
  - { offsetInCU: 0x2051A, offset: 0x2051A, size: 0x8, addend: 0x0, symName: __ZNKSt3__15dequeIiNS_9allocatorIiEEE13__front_spareB7v160006Ev, symObjAddr: 0x6BD4, symBinAddr: 0x1000071CC, symSize: 0x18 }
  - { offsetInCU: 0x20540, offset: 0x20540, size: 0x8, addend: 0x0, symName: __ZNSt3__114__split_bufferIPiNS_9allocatorIS1_EEE5frontB7v160006Ev, symObjAddr: 0x6BEC, symBinAddr: 0x1000071E4, symSize: 0x18 }
  - { offsetInCU: 0x20566, offset: 0x20566, size: 0x8, addend: 0x0, symName: __ZNSt3__114__split_bufferIPiNS_9allocatorIS1_EEE9pop_frontB7v160006Ev, symObjAddr: 0x6C04, symBinAddr: 0x1000071FC, symSize: 0x2C }
  - { offsetInCU: 0x2058C, offset: 0x2058C, size: 0x8, addend: 0x0, symName: __ZNSt3__114__split_bufferIPiNS_9allocatorIS1_EEE9push_backB7v160006ERKS1_, symObjAddr: 0x6C30, symBinAddr: 0x100007228, symSize: 0x270 }
  - { offsetInCU: 0x20604, offset: 0x20604, size: 0x8, addend: 0x0, symName: __ZNKSt3__114__split_bufferIPiNS_9allocatorIS1_EEE12__back_spareB7v160006Ev, symObjAddr: 0x6EA0, symBinAddr: 0x100007498, symSize: 0x40 }
  - { offsetInCU: 0x2062A, offset: 0x2062A, size: 0x8, addend: 0x0, symName: __ZNSt3__114__split_bufferIPiNS_9allocatorIS1_EEE9push_backEOS1_, symObjAddr: 0x6EE0, symBinAddr: 0x1000074D8, symSize: 0x270 }
  - { offsetInCU: 0x206A2, offset: 0x206A2, size: 0x8, addend: 0x0, symName: __ZNSt3__116allocator_traitsINS_9allocatorIiEEE8allocateB7v160006ERS2_m, symObjAddr: 0x7150, symBinAddr: 0x100007748, symSize: 0x2C }
  - { offsetInCU: 0x206D5, offset: 0x206D5, size: 0x8, addend: 0x0, symName: __ZNSt3__114__split_bufferIPiNS_9allocatorIS1_EEE10push_frontEOS1_, symObjAddr: 0x717C, symBinAddr: 0x100007774, symSize: 0x26C }
  - { offsetInCU: 0x2074D, offset: 0x2074D, size: 0x8, addend: 0x0, symName: __ZNSt3__114__split_bufferIPiRNS_9allocatorIS1_EEEC1EmmS4_, symObjAddr: 0x7414, symBinAddr: 0x100007A0C, symSize: 0x44 }
  - { offsetInCU: 0x207A8, offset: 0x207A8, size: 0x8, addend: 0x0, symName: __ZNSt3__122__allocator_destructorINS_9allocatorIiEEEC1B7v160006ERS2_m, symObjAddr: 0x7458, symBinAddr: 0x100007A50, symSize: 0x3C }
  - { offsetInCU: 0x20865, offset: 0x20865, size: 0x8, addend: 0x0, symName: __ZNSt3__110unique_ptrIPiNS_22__allocator_destructorINS_9allocatorIiEEEEEC1B7v160006ILb1EvEES1_NS_16__dependent_typeINS_27__unique_ptr_deleter_sfinaeIS5_EEXT_EE20__good_rval_ref_typeE, symObjAddr: 0x7494, symBinAddr: 0x100007A8C, symSize: 0x3C }
  - { offsetInCU: 0x208B6, offset: 0x208B6, size: 0x8, addend: 0x0, symName: __ZNSt3__114__split_bufferIPiRNS_9allocatorIS1_EEE9push_backEOS1_, symObjAddr: 0x74D0, symBinAddr: 0x100007AC8, symSize: 0x270 }
  - { offsetInCU: 0x2092E, offset: 0x2092E, size: 0x8, addend: 0x0, symName: __ZNKSt3__110unique_ptrIPiNS_22__allocator_destructorINS_9allocatorIiEEEEE3getB7v160006Ev, symObjAddr: 0x7740, symBinAddr: 0x100007D38, symSize: 0x28 }
  - { offsetInCU: 0x20954, offset: 0x20954, size: 0x8, addend: 0x0, symName: __ZNSt3__110unique_ptrIPiNS_22__allocator_destructorINS_9allocatorIiEEEEE7releaseB7v160006Ev, symObjAddr: 0x7768, symBinAddr: 0x100007D60, symSize: 0x44 }
  - { offsetInCU: 0x20989, offset: 0x20989, size: 0x8, addend: 0x0, symName: __ZNSt3__114__split_bufferIPiNS_9allocatorIS1_EEE3endB7v160006Ev, symObjAddr: 0x77AC, symBinAddr: 0x100007DA4, symSize: 0x18 }
  - { offsetInCU: 0x209AF, offset: 0x209AF, size: 0x8, addend: 0x0, symName: __ZNSt3__114__split_bufferIPiNS_9allocatorIS1_EEE5beginB7v160006Ev, symObjAddr: 0x77C4, symBinAddr: 0x100007DBC, symSize: 0x18 }
  - { offsetInCU: 0x209D5, offset: 0x209D5, size: 0x8, addend: 0x0, symName: __ZNSt3__114__split_bufferIPiRNS_9allocatorIS1_EEE10push_frontERKS1_, symObjAddr: 0x77DC, symBinAddr: 0x100007DD4, symSize: 0x26C }
  - { offsetInCU: 0x20A4D, offset: 0x20A4D, size: 0x8, addend: 0x0, symName: __ZNSt3__114__split_bufferIPiNS_9allocatorIS1_EEE9__end_capB7v160006Ev, symObjAddr: 0x7A84, symBinAddr: 0x10000807C, symSize: 0x28 }
  - { offsetInCU: 0x20A73, offset: 0x20A73, size: 0x8, addend: 0x0, symName: __ZNSt3__114__split_bufferIPiRNS_9allocatorIS1_EEE9__end_capB7v160006Ev, symObjAddr: 0x7AAC, symBinAddr: 0x1000080A4, symSize: 0x28 }
  - { offsetInCU: 0x20A99, offset: 0x20A99, size: 0x8, addend: 0x0, symName: __ZNSt3__110unique_ptrIPiNS_22__allocator_destructorINS_9allocatorIiEEEEED1B7v160006Ev, symObjAddr: 0x7AD4, symBinAddr: 0x1000080CC, symSize: 0x2C }
  - { offsetInCU: 0x20AC3, offset: 0x20AC3, size: 0x8, addend: 0x0, symName: __ZNSt3__114__split_bufferIPiRNS_9allocatorIS1_EEED1Ev, symObjAddr: 0x7B00, symBinAddr: 0x1000080F8, symSize: 0x2C }
  - { offsetInCU: 0x20AEF, offset: 0x20AEF, size: 0x8, addend: 0x0, symName: __ZNSt3__114__split_bufferIPiNS_9allocatorIS1_EEE19__destruct_at_beginB7v160006EPS1_, symObjAddr: 0x7B2C, symBinAddr: 0x100008124, symSize: 0x2C }
  - { offsetInCU: 0x20B23, offset: 0x20B23, size: 0x8, addend: 0x0, symName: __ZNSt3__114__split_bufferIPiNS_9allocatorIS1_EEE19__destruct_at_beginEPS1_NS_17integral_constantIbLb1EEE, symObjAddr: 0x7B58, symBinAddr: 0x100008150, symSize: 0x20 }
  - { offsetInCU: 0x20B63, offset: 0x20B63, size: 0x8, addend: 0x0, symName: __ZNSt3__114__split_bufferIPiRNS_9allocatorIS1_EEE18__construct_at_endINS_13move_iteratorIPS1_EEEENS_9enable_ifIXsr27__is_cpp17_forward_iteratorIT_EE5valueEvE4typeESB_SB_, symObjAddr: 0x7BB8, symBinAddr: 0x1000081B0, symSize: 0x104 }
  - { offsetInCU: 0x20BBF, offset: 0x20BBF, size: 0x8, addend: 0x0, symName: __ZNSt3__113move_iteratorIPPiEC1B7v160006ES2_, symObjAddr: 0x7CBC, symBinAddr: 0x1000082B4, symSize: 0x34 }
  - { offsetInCU: 0x20BF7, offset: 0x20BF7, size: 0x8, addend: 0x0, symName: __ZNSt3__116allocator_traitsINS_9allocatorIPiEEE9constructB7v160006IS2_JRKS2_EvEEvRS3_PT_DpOT0_, symObjAddr: 0x7CF0, symBinAddr: 0x1000082E8, symSize: 0x34 }
  - { offsetInCU: 0x20C74, offset: 0x20C74, size: 0x8, addend: 0x0, symName: __ZNKSt3__114__move_trivialclB7v160006IPiS2_Li0EEENS_4pairIPT_PT0_EES5_S5_S7_, symObjAddr: 0x7ED0, symBinAddr: 0x1000084C8, symSize: 0x48 }
  - { offsetInCU: 0x20CDC, offset: 0x20CDC, size: 0x8, addend: 0x0, symName: __ZNSt3__14pairIPPiS2_EC1B7v160006ERKS2_S5_, symObjAddr: 0x80AC, symBinAddr: 0x1000086A4, symSize: 0x3C }
  - { offsetInCU: 0x20D22, offset: 0x20D22, size: 0x8, addend: 0x0, symName: __ZNSt3__14pairIPPiS2_EC2B7v160006ERKS2_S5_, symObjAddr: 0x80E8, symBinAddr: 0x1000086E0, symSize: 0x34 }
  - { offsetInCU: 0x20D68, offset: 0x20D68, size: 0x8, addend: 0x0, symName: __ZNSt3__118__unwrap_iter_implIPPiLb1EE8__unwrapB7v160006ES2_, symObjAddr: 0x811C, symBinAddr: 0x100008714, symSize: 0x24 }
  - { offsetInCU: 0x20D8B, offset: 0x20D8B, size: 0x8, addend: 0x0, symName: __ZNSt3__118__unwrap_iter_implIPPiLb1EE8__rewrapB7v160006ES2_S2_, symObjAddr: 0x8140, symBinAddr: 0x100008738, symSize: 0x50 }
  - { offsetInCU: 0x20DC6, offset: 0x20DC6, size: 0x8, addend: 0x0, symName: __ZNSt3__114__split_bufferIPiRNS_9allocatorIS1_EEE21_ConstructTransactionC1B7v160006EPPS1_m, symObjAddr: 0x81CC, symBinAddr: 0x1000087C4, symSize: 0x3C }
  - { offsetInCU: 0x20E0C, offset: 0x20E0C, size: 0x8, addend: 0x0, symName: __ZNSt3__116allocator_traitsINS_9allocatorIPiEEE9constructB7v160006IS2_JS2_EvEEvRS3_PT_DpOT0_, symObjAddr: 0x8208, symBinAddr: 0x100008800, symSize: 0x34 }
  - { offsetInCU: 0x20E63, offset: 0x20E63, size: 0x8, addend: 0x0, symName: __ZNSt3__114__split_bufferIPiRNS_9allocatorIS1_EEE7__allocB7v160006Ev, symObjAddr: 0x823C, symBinAddr: 0x100008834, symSize: 0x28 }
  - { offsetInCU: 0x20E89, offset: 0x20E89, size: 0x8, addend: 0x0, symName: __ZNKSt3__113move_iteratorIPPiEdeB7v160006Ev, symObjAddr: 0x8264, symBinAddr: 0x10000885C, symSize: 0x18 }
  - { offsetInCU: 0x20EAF, offset: 0x20EAF, size: 0x8, addend: 0x0, symName: __ZNSt3__113move_iteratorIPPiEppB7v160006Ev, symObjAddr: 0x827C, symBinAddr: 0x100008874, symSize: 0x20 }
  - { offsetInCU: 0x20ED5, offset: 0x20ED5, size: 0x8, addend: 0x0, symName: __ZNSt3__114__split_bufferIPiRNS_9allocatorIS1_EEE21_ConstructTransactionD1B7v160006Ev, symObjAddr: 0x829C, symBinAddr: 0x100008894, symSize: 0x2C }
  - { offsetInCU: 0x20EFF, offset: 0x20EFF, size: 0x8, addend: 0x0, symName: __ZNKSt3__113move_iteratorIPPiE4baseB7v160006Ev, symObjAddr: 0x8340, symBinAddr: 0x100008938, symSize: 0x18 }
  - { offsetInCU: 0x20F25, offset: 0x20F25, size: 0x8, addend: 0x0, symName: __ZNSt3__114__split_bufferIPiRNS_9allocatorIS1_EEE21_ConstructTransactionC2B7v160006EPPS1_m, symObjAddr: 0x8358, symBinAddr: 0x100008950, symSize: 0x44 }
  - { offsetInCU: 0x20F6B, offset: 0x20F6B, size: 0x8, addend: 0x0, symName: __ZNSt3__19allocatorIPiE9constructB7v160006IS1_JS1_EEEvPT_DpOT0_, symObjAddr: 0x839C, symBinAddr: 0x100008994, symSize: 0x28 }
  - { offsetInCU: 0x20FC1, offset: 0x20FC1, size: 0x8, addend: 0x0, symName: __ZNSt3__117__compressed_pairIPPiRNS_9allocatorIS1_EEE6secondB7v160006Ev, symObjAddr: 0x83C4, symBinAddr: 0x1000089BC, symSize: 0x28 }
  - { offsetInCU: 0x20FE7, offset: 0x20FE7, size: 0x8, addend: 0x0, symName: __ZNSt3__122__compressed_pair_elemIRNS_9allocatorIPiEELi1ELb0EE5__getB7v160006Ev, symObjAddr: 0x83EC, symBinAddr: 0x1000089E4, symSize: 0x18 }
  - { offsetInCU: 0x2100D, offset: 0x2100D, size: 0x8, addend: 0x0, symName: __ZNSt3__114__split_bufferIPiRNS_9allocatorIS1_EEE21_ConstructTransactionD2B7v160006Ev, symObjAddr: 0x8404, symBinAddr: 0x1000089FC, symSize: 0x20 }
  - { offsetInCU: 0x21037, offset: 0x21037, size: 0x8, addend: 0x0, symName: __ZNSt3__113move_iteratorIPPiEC2B7v160006ES2_, symObjAddr: 0x8424, symBinAddr: 0x100008A1C, symSize: 0x20 }
  - { offsetInCU: 0x2106F, offset: 0x2106F, size: 0x8, addend: 0x0, symName: __ZNSt3__19allocatorIPiE9constructB7v160006IS1_JRKS1_EEEvPT_DpOT0_, symObjAddr: 0x8444, symBinAddr: 0x100008A3C, symSize: 0x28 }
  - { offsetInCU: 0x210CF, offset: 0x210CF, size: 0x8, addend: 0x0, symName: __ZNKSt3__123__move_backward_trivialclB7v160006IPiS2_Li0EEENS_4pairIPT_PT0_EES5_S5_S7_, symObjAddr: 0x85F8, symBinAddr: 0x100008BF0, symSize: 0x48 }
  - { offsetInCU: 0x21137, offset: 0x21137, size: 0x8, addend: 0x0, symName: __ZNSt3__114__split_bufferIPiRNS_9allocatorIS1_EEEC2EmmS4_, symObjAddr: 0x8760, symBinAddr: 0x100008D58, symSize: 0xD4 }
  - { offsetInCU: 0x211AA, offset: 0x211AA, size: 0x8, addend: 0x0, symName: __ZNSt3__117__compressed_pairIPPiRNS_9allocatorIS1_EEEC1B7v160006IDnS5_EEOT_OT0_, symObjAddr: 0x8834, symBinAddr: 0x100008E2C, symSize: 0x3C }
  - { offsetInCU: 0x21202, offset: 0x21202, size: 0x8, addend: 0x0, symName: __ZNSt3__117__compressed_pairIPPiRNS_9allocatorIS1_EEEC2B7v160006IDnS5_EEOT_OT0_, symObjAddr: 0x88B0, symBinAddr: 0x100008EA8, symSize: 0x48 }
  - { offsetInCU: 0x2125A, offset: 0x2125A, size: 0x8, addend: 0x0, symName: __ZNSt3__122__compressed_pair_elemIRNS_9allocatorIPiEELi1ELb0EEC2B7v160006IS4_vEEOT_, symObjAddr: 0x88F8, symBinAddr: 0x100008EF0, symSize: 0x20 }
  - { offsetInCU: 0x2129C, offset: 0x2129C, size: 0x8, addend: 0x0, symName: __ZNSt3__19allocatorIPiE8allocateB7v160006Em, symObjAddr: 0x8918, symBinAddr: 0x100008F10, symSize: 0x84 }
  - { offsetInCU: 0x212DB, offset: 0x212DB, size: 0x8, addend: 0x0, symName: __ZNSt3__116allocator_traitsINS_9allocatorIPiEEE8max_sizeB7v160006IS3_vEEmRKS3_, symObjAddr: 0x899C, symBinAddr: 0x100008F94, symSize: 0x24 }
  - { offsetInCU: 0x21309, offset: 0x21309, size: 0x8, addend: 0x0, symName: __ZNKSt3__19allocatorIPiE8max_sizeB7v160006Ev, symObjAddr: 0x89C0, symBinAddr: 0x100008FB8, symSize: 0x14 }
  - { offsetInCU: 0x2132F, offset: 0x2132F, size: 0x8, addend: 0x0, symName: __ZNSt3__122__allocator_destructorINS_9allocatorIiEEEC2B7v160006ERS2_m, symObjAddr: 0x89D4, symBinAddr: 0x100008FCC, symSize: 0x2C }
  - { offsetInCU: 0x21375, offset: 0x21375, size: 0x8, addend: 0x0, symName: __ZNSt3__110unique_ptrIPiNS_22__allocator_destructorINS_9allocatorIiEEEEEC2B7v160006ILb1EvEES1_NS_16__dependent_typeINS_27__unique_ptr_deleter_sfinaeIS5_EEXT_EE20__good_rval_ref_typeE, symObjAddr: 0x8A00, symBinAddr: 0x100008FF8, symSize: 0x5C }
  - { offsetInCU: 0x213C6, offset: 0x213C6, size: 0x8, addend: 0x0, symName: __ZNSt3__117__compressed_pairIPiNS_22__allocator_destructorINS_9allocatorIiEEEEEC1B7v160006IRS1_S5_EEOT_OT0_, symObjAddr: 0x8A5C, symBinAddr: 0x100009054, symSize: 0x3C }
  - { offsetInCU: 0x2141E, offset: 0x2141E, size: 0x8, addend: 0x0, symName: __ZNSt3__117__compressed_pairIPiNS_22__allocator_destructorINS_9allocatorIiEEEEEC2B7v160006IRS1_S5_EEOT_OT0_, symObjAddr: 0x8A98, symBinAddr: 0x100009090, symSize: 0x48 }
  - { offsetInCU: 0x21476, offset: 0x21476, size: 0x8, addend: 0x0, symName: __ZNSt3__122__compressed_pair_elemIPiLi0ELb0EEC2B7v160006IRS1_vEEOT_, symObjAddr: 0x8AE0, symBinAddr: 0x1000090D8, symSize: 0x24 }
  - { offsetInCU: 0x214B8, offset: 0x214B8, size: 0x8, addend: 0x0, symName: __ZNSt3__122__compressed_pair_elemINS_22__allocator_destructorINS_9allocatorIiEEEELi1ELb0EEC2B7v160006IS4_vEEOT_, symObjAddr: 0x8B04, symBinAddr: 0x1000090FC, symSize: 0x24 }
  - { offsetInCU: 0x214FA, offset: 0x214FA, size: 0x8, addend: 0x0, symName: __ZNKSt3__117__compressed_pairIPiNS_22__allocator_destructorINS_9allocatorIiEEEEE5firstB7v160006Ev, symObjAddr: 0x8B28, symBinAddr: 0x100009120, symSize: 0x24 }
  - { offsetInCU: 0x21520, offset: 0x21520, size: 0x8, addend: 0x0, symName: __ZNSt3__117__compressed_pairIPiNS_22__allocator_destructorINS_9allocatorIiEEEEE5firstB7v160006Ev, symObjAddr: 0x8B4C, symBinAddr: 0x100009144, symSize: 0x24 }
  - { offsetInCU: 0x21546, offset: 0x21546, size: 0x8, addend: 0x0, symName: __ZNSt3__117__compressed_pairIPPiNS_9allocatorIS1_EEE5firstB7v160006Ev, symObjAddr: 0x8B70, symBinAddr: 0x100009168, symSize: 0x24 }
  - { offsetInCU: 0x2156C, offset: 0x2156C, size: 0x8, addend: 0x0, symName: __ZNSt3__122__compressed_pair_elemIPPiLi0ELb0EE5__getB7v160006Ev, symObjAddr: 0x8B94, symBinAddr: 0x10000918C, symSize: 0x14 }
  - { offsetInCU: 0x21592, offset: 0x21592, size: 0x8, addend: 0x0, symName: __ZNSt3__117__compressed_pairIPPiRNS_9allocatorIS1_EEE5firstB7v160006Ev, symObjAddr: 0x8BA8, symBinAddr: 0x1000091A0, symSize: 0x24 }
  - { offsetInCU: 0x215B8, offset: 0x215B8, size: 0x8, addend: 0x0, symName: __ZNSt3__110unique_ptrIPiNS_22__allocator_destructorINS_9allocatorIiEEEEED2B7v160006Ev, symObjAddr: 0x8BCC, symBinAddr: 0x1000091C4, symSize: 0x30 }
  - { offsetInCU: 0x215E2, offset: 0x215E2, size: 0x8, addend: 0x0, symName: __ZNSt3__110unique_ptrIPiNS_22__allocator_destructorINS_9allocatorIiEEEEE5resetB7v160006ES1_, symObjAddr: 0x8BFC, symBinAddr: 0x1000091F4, symSize: 0x78 }
  - { offsetInCU: 0x21626, offset: 0x21626, size: 0x8, addend: 0x0, symName: __ZNSt3__117__compressed_pairIPiNS_22__allocator_destructorINS_9allocatorIiEEEEE6secondB7v160006Ev, symObjAddr: 0x8C74, symBinAddr: 0x10000926C, symSize: 0x28 }
  - { offsetInCU: 0x2164C, offset: 0x2164C, size: 0x8, addend: 0x0, symName: __ZNSt3__122__allocator_destructorINS_9allocatorIiEEEclB7v160006EPi, symObjAddr: 0x8C9C, symBinAddr: 0x100009294, symSize: 0x34 }
  - { offsetInCU: 0x21680, offset: 0x21680, size: 0x8, addend: 0x0, symName: __ZNSt3__122__compressed_pair_elemINS_22__allocator_destructorINS_9allocatorIiEEEELi1ELb0EE5__getB7v160006Ev, symObjAddr: 0x8CD0, symBinAddr: 0x1000092C8, symSize: 0x14 }
  - { offsetInCU: 0x216A6, offset: 0x216A6, size: 0x8, addend: 0x0, symName: __ZNSt3__114__split_bufferIPiRNS_9allocatorIS1_EEED2Ev, symObjAddr: 0x8CE4, symBinAddr: 0x1000092DC, symSize: 0x80 }
  - { offsetInCU: 0x216D2, offset: 0x216D2, size: 0x8, addend: 0x0, symName: __ZNSt3__114__split_bufferIPiRNS_9allocatorIS1_EEE5clearB7v160006Ev, symObjAddr: 0x8D64, symBinAddr: 0x10000935C, symSize: 0x28 }
  - { offsetInCU: 0x216F8, offset: 0x216F8, size: 0x8, addend: 0x0, symName: __ZNKSt3__114__split_bufferIPiRNS_9allocatorIS1_EEE8capacityB7v160006Ev, symObjAddr: 0x8D8C, symBinAddr: 0x100009384, symSize: 0x40 }
  - { offsetInCU: 0x2171E, offset: 0x2171E, size: 0x8, addend: 0x0, symName: __ZNSt3__114__split_bufferIPiRNS_9allocatorIS1_EEE17__destruct_at_endB7v160006EPS1_, symObjAddr: 0x8DCC, symBinAddr: 0x1000093C4, symSize: 0x2C }
  - { offsetInCU: 0x21752, offset: 0x21752, size: 0x8, addend: 0x0, symName: __ZNSt3__114__split_bufferIPiRNS_9allocatorIS1_EEE17__destruct_at_endB7v160006EPS1_NS_17integral_constantIbLb0EEE, symObjAddr: 0x8DF8, symBinAddr: 0x1000093F0, symSize: 0x94 }
  - { offsetInCU: 0x21792, offset: 0x21792, size: 0x8, addend: 0x0, symName: __ZNKSt3__114__split_bufferIPiRNS_9allocatorIS1_EEE9__end_capB7v160006Ev, symObjAddr: 0x8E8C, symBinAddr: 0x100009484, symSize: 0x28 }
  - { offsetInCU: 0x217B8, offset: 0x217B8, size: 0x8, addend: 0x0, symName: __ZNKSt3__117__compressed_pairIPPiRNS_9allocatorIS1_EEE5firstB7v160006Ev, symObjAddr: 0x8EB4, symBinAddr: 0x1000094AC, symSize: 0x24 }
  - { offsetInCU: 0x217DE, offset: 0x217DE, size: 0x8, addend: 0x0, symName: __ZNKSt3__114__split_bufferIPiNS_9allocatorIS1_EEE5emptyB7v160006Ev, symObjAddr: 0x8ED8, symBinAddr: 0x1000094D0, symSize: 0x28 }
  - { offsetInCU: 0x21804, offset: 0x21804, size: 0x8, addend: 0x0, symName: __ZNSt3__116__deque_iteratorIiPiRiPS1_lLl1024EEC1B7v160006ES3_S1_, symObjAddr: 0x8F00, symBinAddr: 0x1000094F8, symSize: 0x3C }
  - { offsetInCU: 0x2184C, offset: 0x2184C, size: 0x8, addend: 0x0, symName: __ZNSt3__116__deque_iteratorIiPiRiPS1_lLl1024EEC2B7v160006ES3_S1_, symObjAddr: 0x8F3C, symBinAddr: 0x100009534, symSize: 0x2C }
  - { offsetInCU: 0x21894, offset: 0x21894, size: 0x8, addend: 0x0, symName: __ZNSt3__117__compressed_pairImNS_9allocatorIiEEE5firstB7v160006Ev, symObjAddr: 0x8F68, symBinAddr: 0x100009560, symSize: 0x24 }
  - { offsetInCU: 0x218BA, offset: 0x218BA, size: 0x8, addend: 0x0, symName: __ZNKSt3__15dequeIiNS_9allocatorIiEEE5emptyB7v160006Ev, symObjAddr: 0x8F8C, symBinAddr: 0x100009584, symSize: 0x30 }
  - { offsetInCU: 0x218E0, offset: 0x218E0, size: 0x8, addend: 0x0, symName: __ZNSt3__15dequeIiNS_9allocatorIiEEE5frontEv, symObjAddr: 0x8FBC, symBinAddr: 0x1000095B4, symSize: 0x50 }
  - { offsetInCU: 0x21908, offset: 0x21908, size: 0x8, addend: 0x0, symName: __ZNSt3__15dequeIiNS_9allocatorIiEEE9pop_frontEv, symObjAddr: 0x900C, symBinAddr: 0x100009604, symSize: 0xAC }
  - { offsetInCU: 0x2193F, offset: 0x2193F, size: 0x8, addend: 0x0, symName: __ZNSt3__15dequeIiNS_9allocatorIiEEE26__maybe_remove_front_spareB7v160006Eb, symObjAddr: 0x90B8, symBinAddr: 0x1000096B0, symSize: 0xDC }
  - { offsetInCU: 0x21974, offset: 0x21974, size: 0x8, addend: 0x0, symName: __ZNKSt3__15dequeIiNS_9allocatorIiEEE20__front_spare_blocksB7v160006Ev, symObjAddr: 0x9194, symBinAddr: 0x10000978C, symSize: 0x2C }
  - { offsetInCU: 0x2199A, offset: 0x2199A, size: 0x8, addend: 0x0, symName: __ZNSt3__111__wrap_iterIPiEmmB7v160006Ev, symObjAddr: 0x92C0, symBinAddr: 0x1000098B8, symSize: 0x20 }
  - { offsetInCU: 0x219C0, offset: 0x219C0, size: 0x8, addend: 0x0, symName: __ZNSt3__18_IterOpsINS_17_ClassicAlgPolicyEE9iter_swapB7v160006IRNS_11__wrap_iterIPiEES7_EEvOT_OT0_, symObjAddr: 0x92E0, symBinAddr: 0x1000098D8, symSize: 0x44 }
  - { offsetInCU: 0x21A03, offset: 0x21A03, size: 0x8, addend: 0x0, symName: __ZNKSt3__111__wrap_iterIPiE4baseB7v160006Ev, symObjAddr: 0x9324, symBinAddr: 0x10000991C, symSize: 0x18 }
  - { offsetInCU: 0x21A29, offset: 0x21A29, size: 0x8, addend: 0x0, symName: __ZNSt3__16vectorIbNS_9allocatorIbEEED2B7v160006Ev, symObjAddr: 0x93C8, symBinAddr: 0x1000099C0, symSize: 0x3C }
  - { offsetInCU: 0x21A53, offset: 0x21A53, size: 0x8, addend: 0x0, symName: __ZNSt3__16vectorIbNS_9allocatorIbEEE16__destroy_vectorC1ERS3_, symObjAddr: 0x9404, symBinAddr: 0x1000099FC, symSize: 0x34 }
  - { offsetInCU: 0x21A8C, offset: 0x21A8C, size: 0x8, addend: 0x0, symName: __ZNSt3__16vectorIbNS_9allocatorIbEEE16__destroy_vectorclB7v160006Ev, symObjAddr: 0x9438, symBinAddr: 0x100009A30, symSize: 0x84 }
  - { offsetInCU: 0x21AB2, offset: 0x21AB2, size: 0x8, addend: 0x0, symName: __ZNSt3__16vectorIbNS_9allocatorIbEEE16__destroy_vectorC2ERS3_, symObjAddr: 0x94BC, symBinAddr: 0x100009AB4, symSize: 0x20 }
  - { offsetInCU: 0x21AEB, offset: 0x21AEB, size: 0x8, addend: 0x0, symName: __ZNSt3__116allocator_traitsINS_9allocatorImEEE10deallocateB7v160006ERS2_Pmm, symObjAddr: 0x94DC, symBinAddr: 0x100009AD4, symSize: 0x34 }
  - { offsetInCU: 0x21B2D, offset: 0x21B2D, size: 0x8, addend: 0x0, symName: __ZNSt3__19allocatorImE10deallocateB7v160006EPmm, symObjAddr: 0x9520, symBinAddr: 0x100009B18, symSize: 0x70 }
  - { offsetInCU: 0x21B6F, offset: 0x21B6F, size: 0x8, addend: 0x0, symName: __ZNSt3__15queueIiNS_5dequeIiNS_9allocatorIiEEEEED2Ev, symObjAddr: 0x9590, symBinAddr: 0x100009B88, symSize: 0x2C }
  - { offsetInCU: 0x21B9C, offset: 0x21B9C, size: 0x8, addend: 0x0, symName: __ZNSt3__15dequeIiNS_9allocatorIiEEED1B7v160006Ev, symObjAddr: 0x95BC, symBinAddr: 0x100009BB4, symSize: 0x2C }
  - { offsetInCU: 0x21BC6, offset: 0x21BC6, size: 0x8, addend: 0x0, symName: __ZNSt3__15dequeIiNS_9allocatorIiEEED2B7v160006Ev, symObjAddr: 0x95E8, symBinAddr: 0x100009BE0, symSize: 0x9C }
  - { offsetInCU: 0x21C1C, offset: 0x21C1C, size: 0x8, addend: 0x0, symName: __ZNSt3__15dequeIiNS_9allocatorIiEEE5clearEv, symObjAddr: 0x9684, symBinAddr: 0x100009C7C, symSize: 0x170 }
  - { offsetInCU: 0x21C7F, offset: 0x21C7F, size: 0x8, addend: 0x0, symName: __ZNSt3__15dequeIiNS_9allocatorIiEEE5beginB7v160006Ev, symObjAddr: 0x97F4, symBinAddr: 0x100009DEC, symSize: 0xA8 }
  - { offsetInCU: 0x21CB4, offset: 0x21CB4, size: 0x8, addend: 0x0, symName: __ZNSt3__116__deque_iteratorIiPiRiPS1_lLl1024EEppB7v160006Ev, symObjAddr: 0x98D0, symBinAddr: 0x100009EC8, symSize: 0x70 }
  - { offsetInCU: 0x21CDA, offset: 0x21CDA, size: 0x8, addend: 0x0, symName: __ZNSt3__114basic_ofstreamIcNS_11char_traitsIcEEED2Ev, symObjAddr: 0x9970, symBinAddr: 0x100009F68, symSize: 0x9C }
  - { offsetInCU: 0x21D14, offset: 0x21D14, size: 0x8, addend: 0x0, symName: __ZTv0_n24_NSt3__114basic_ofstreamIcNS_11char_traitsIcEEED1Ev, symObjAddr: 0x9A0C, symBinAddr: 0x10000A004, symSize: 0x28 }
  - { offsetInCU: 0x21D2B, offset: 0x21D2B, size: 0x8, addend: 0x0, symName: __ZN3CarC2Ev, symObjAddr: 0x9A34, symBinAddr: 0x10000A02C, symSize: 0x20 }
  - { offsetInCU: 0x21D55, offset: 0x21D55, size: 0x8, addend: 0x0, symName: __ZN5GraphC2Ei, symObjAddr: 0x9A54, symBinAddr: 0x10000A04C, symSize: 0x174 }
  - { offsetInCU: 0x21D8D, offset: 0x21D8D, size: 0x8, addend: 0x0, symName: __ZNSt3__14listINS_4pairIiiEENS_9allocatorIS2_EEEC1B7v160006Ev, symObjAddr: 0x9BC8, symBinAddr: 0x10000A1C0, symSize: 0x2C }
  - { offsetInCU: 0x21DB7, offset: 0x21DB7, size: 0x8, addend: 0x0, symName: __ZNSt3__14listINS_4pairIiiEENS_9allocatorIS2_EEED1Ev, symObjAddr: 0x9BF4, symBinAddr: 0x10000A1EC, symSize: 0x2C }
  - { offsetInCU: 0x21DE4, offset: 0x21DE4, size: 0x8, addend: 0x0, symName: __ZNSt3__14listINS_4pairIiiEENS_9allocatorIS2_EEEC2B7v160006Ev, symObjAddr: 0x9C20, symBinAddr: 0x10000A218, symSize: 0x64 }
  - { offsetInCU: 0x21E0E, offset: 0x21E0E, size: 0x8, addend: 0x0, symName: __ZNSt3__110__list_impINS_4pairIiiEENS_9allocatorIS2_EEEC2Ev, symObjAddr: 0x9C84, symBinAddr: 0x10000A27C, symSize: 0x44 }
  - { offsetInCU: 0x21E3A, offset: 0x21E3A, size: 0x8, addend: 0x0, symName: __ZNSt3__110__list_impINS_4pairIiiEENS_9allocatorIS2_EEED2Ev, symObjAddr: 0x9CD8, symBinAddr: 0x10000A2D0, symSize: 0x34 }
  - { offsetInCU: 0x21E66, offset: 0x21E66, size: 0x8, addend: 0x0, symName: __ZNSt3__116__list_node_baseINS_4pairIiiEEPvEC1B7v160006Ev, symObjAddr: 0x9D0C, symBinAddr: 0x10000A304, symSize: 0x2C }
  - { offsetInCU: 0x21E90, offset: 0x21E90, size: 0x8, addend: 0x0, symName: __ZNSt3__117__compressed_pairImNS_9allocatorINS_11__list_nodeINS_4pairIiiEEPvEEEEEC1B7v160006IiNS_18__default_init_tagEEEOT_OT0_, symObjAddr: 0x9D38, symBinAddr: 0x10000A330, symSize: 0x3C }
  - { offsetInCU: 0x21EE8, offset: 0x21EE8, size: 0x8, addend: 0x0, symName: __ZNSt3__116__list_node_baseINS_4pairIiiEEPvEC2B7v160006Ev, symObjAddr: 0x9D74, symBinAddr: 0x10000A36C, symSize: 0x4C }
  - { offsetInCU: 0x21F12, offset: 0x21F12, size: 0x8, addend: 0x0, symName: __ZNSt3__117__compressed_pairImNS_9allocatorINS_11__list_nodeINS_4pairIiiEEPvEEEEEC2B7v160006IiNS_18__default_init_tagEEEOT_OT0_, symObjAddr: 0x9DC0, symBinAddr: 0x10000A3B8, symSize: 0x40 }
  - { offsetInCU: 0x21F6A, offset: 0x21F6A, size: 0x8, addend: 0x0, symName: __ZNSt3__122__compressed_pair_elemINS_9allocatorINS_11__list_nodeINS_4pairIiiEEPvEEEELi1ELb1EEC2B7v160006ENS_18__default_init_tagE, symObjAddr: 0x9E00, symBinAddr: 0x10000A3F8, symSize: 0x2C }
  - { offsetInCU: 0x21F9E, offset: 0x21F9E, size: 0x8, addend: 0x0, symName: __ZNSt3__19allocatorINS_11__list_nodeINS_4pairIiiEEPvEEEC2B7v160006Ev, symObjAddr: 0x9E2C, symBinAddr: 0x10000A424, symSize: 0x2C }
  - { offsetInCU: 0x21FC8, offset: 0x21FC8, size: 0x8, addend: 0x0, symName: __ZNSt3__116__non_trivial_ifILb1ENS_9allocatorINS_11__list_nodeINS_4pairIiiEEPvEEEEEC2B7v160006Ev, symObjAddr: 0x9E58, symBinAddr: 0x10000A450, symSize: 0x14 }
  - { offsetInCU: 0x21FF2, offset: 0x21FF2, size: 0x8, addend: 0x0, symName: __ZNSt3__14listINS_4pairIiiEENS_9allocatorIS2_EEED2Ev, symObjAddr: 0x9E7C, symBinAddr: 0x10000A474, symSize: 0x2C }
  - { offsetInCU: 0x22065, offset: 0x22065, size: 0x8, addend: 0x0, symName: __ZNSt3__114priority_queueINS_4pairIiiEENS_6vectorIS2_NS_9allocatorIS2_EEEENS_7greaterIS2_EEEC1B7v160006Ev, symObjAddr: 0x9EA8, symBinAddr: 0x10000A4A0, symSize: 0x2C }
  - { offsetInCU: 0x2208F, offset: 0x2208F, size: 0x8, addend: 0x0, symName: __ZNSt3__114priority_queueINS_4pairIiiEENS_6vectorIS2_NS_9allocatorIS2_EEEENS_7greaterIS2_EEE4pushERKS2_, symObjAddr: 0x9ED4, symBinAddr: 0x10000A4CC, symSize: 0x58 }
  - { offsetInCU: 0x220C6, offset: 0x220C6, size: 0x8, addend: 0x0, symName: __ZNKSt3__114priority_queueINS_4pairIiiEENS_6vectorIS2_NS_9allocatorIS2_EEEENS_7greaterIS2_EEE5emptyB7v160006Ev, symObjAddr: 0x9F60, symBinAddr: 0x10000A558, symSize: 0x28 }
  - { offsetInCU: 0x220EC, offset: 0x220EC, size: 0x8, addend: 0x0, symName: __ZNKSt3__114priority_queueINS_4pairIiiEENS_6vectorIS2_NS_9allocatorIS2_EEEENS_7greaterIS2_EEE3topB7v160006Ev, symObjAddr: 0x9F88, symBinAddr: 0x10000A580, symSize: 0x24 }
  - { offsetInCU: 0x22112, offset: 0x22112, size: 0x8, addend: 0x0, symName: __ZNSt3__114priority_queueINS_4pairIiiEENS_6vectorIS2_NS_9allocatorIS2_EEEENS_7greaterIS2_EEE3popEv, symObjAddr: 0x9FAC, symBinAddr: 0x10000A5A4, symSize: 0x50 }
  - { offsetInCU: 0x2213A, offset: 0x2213A, size: 0x8, addend: 0x0, symName: __ZNSt3__114priority_queueINS_4pairIiiEENS_6vectorIS2_NS_9allocatorIS2_EEEENS_7greaterIS2_EEED1Ev, symObjAddr: 0x9FFC, symBinAddr: 0x10000A5F4, symSize: 0x2C }
  - { offsetInCU: 0x22167, offset: 0x22167, size: 0x8, addend: 0x0, symName: __ZNSt3__114priority_queueINS_4pairIiiEENS_6vectorIS2_NS_9allocatorIS2_EEEENS_7greaterIS2_EEEC2B7v160006Ev, symObjAddr: 0xA028, symBinAddr: 0x10000A620, symSize: 0x2C }
  - { offsetInCU: 0x22191, offset: 0x22191, size: 0x8, addend: 0x0, symName: __ZNSt3__16vectorINS_4pairIiiEENS_9allocatorIS2_EEEC1B7v160006Ev, symObjAddr: 0xA054, symBinAddr: 0x10000A64C, symSize: 0x2C }
  - { offsetInCU: 0x221BB, offset: 0x221BB, size: 0x8, addend: 0x0, symName: __ZNSt3__16vectorINS_4pairIiiEENS_9allocatorIS2_EEEC2B7v160006Ev, symObjAddr: 0xA080, symBinAddr: 0x10000A678, symSize: 0x4C }
  - { offsetInCU: 0x221E5, offset: 0x221E5, size: 0x8, addend: 0x0, symName: __ZNSt3__117__compressed_pairIPNS_4pairIiiEENS_9allocatorIS2_EEEC1B7v160006IDnNS_18__default_init_tagEEEOT_OT0_, symObjAddr: 0xA0CC, symBinAddr: 0x10000A6C4, symSize: 0x3C }
  - { offsetInCU: 0x2223D, offset: 0x2223D, size: 0x8, addend: 0x0, symName: __ZNSt3__117__compressed_pairIPNS_4pairIiiEENS_9allocatorIS2_EEEC2B7v160006IDnNS_18__default_init_tagEEEOT_OT0_, symObjAddr: 0xA118, symBinAddr: 0x10000A710, symSize: 0x40 }
  - { offsetInCU: 0x22295, offset: 0x22295, size: 0x8, addend: 0x0, symName: __ZNSt3__122__compressed_pair_elemIPNS_4pairIiiEELi0ELb0EEC2B7v160006IDnvEEOT_, symObjAddr: 0xA158, symBinAddr: 0x10000A750, symSize: 0x1C }
  - { offsetInCU: 0x222D7, offset: 0x222D7, size: 0x8, addend: 0x0, symName: __ZNSt3__122__compressed_pair_elemINS_9allocatorINS_4pairIiiEEEELi1ELb1EEC2B7v160006ENS_18__default_init_tagE, symObjAddr: 0xA174, symBinAddr: 0x10000A76C, symSize: 0x2C }
  - { offsetInCU: 0x2230B, offset: 0x2230B, size: 0x8, addend: 0x0, symName: __ZNSt3__19allocatorINS_4pairIiiEEEC2B7v160006Ev, symObjAddr: 0xA1A0, symBinAddr: 0x10000A798, symSize: 0x2C }
  - { offsetInCU: 0x22335, offset: 0x22335, size: 0x8, addend: 0x0, symName: __ZNSt3__116__non_trivial_ifILb1ENS_9allocatorINS_4pairIiiEEEEEC2B7v160006Ev, symObjAddr: 0xA1CC, symBinAddr: 0x10000A7C4, symSize: 0x14 }
  - { offsetInCU: 0x2235F, offset: 0x2235F, size: 0x8, addend: 0x0, symName: __ZNSt3__16vectorINS_4pairIiiEENS_9allocatorIS2_EEE9push_backB7v160006ERKS2_, symObjAddr: 0xA1E0, symBinAddr: 0x10000A7D8, symSize: 0x6C }
  - { offsetInCU: 0x22396, offset: 0x22396, size: 0x8, addend: 0x0, symName: __ZNSt3__16vectorINS_4pairIiiEENS_9allocatorIS2_EEE5beginB7v160006Ev, symObjAddr: 0xA28C, symBinAddr: 0x10000A884, symSize: 0x30 }
  - { offsetInCU: 0x223BE, offset: 0x223BE, size: 0x8, addend: 0x0, symName: __ZNSt3__16vectorINS_4pairIiiEENS_9allocatorIS2_EEE3endB7v160006Ev, symObjAddr: 0xA2BC, symBinAddr: 0x10000A8B4, symSize: 0x30 }
  - { offsetInCU: 0x223E6, offset: 0x223E6, size: 0x8, addend: 0x0, symName: __ZNSt3__16vectorINS_4pairIiiEENS_9allocatorIS2_EEE9__end_capB7v160006Ev, symObjAddr: 0xA2EC, symBinAddr: 0x10000A8E4, symSize: 0x28 }
  - { offsetInCU: 0x2240C, offset: 0x2240C, size: 0x8, addend: 0x0, symName: __ZNSt3__16vectorINS_4pairIiiEENS_9allocatorIS2_EEE22__construct_one_at_endB7v160006IJRKS2_EEEvDpOT_, symObjAddr: 0xA314, symBinAddr: 0x10000A90C, symSize: 0x98 }
  - { offsetInCU: 0x2245B, offset: 0x2245B, size: 0x8, addend: 0x0, symName: __ZNSt3__16vectorINS_4pairIiiEENS_9allocatorIS2_EEE21__push_back_slow_pathIRKS2_EEvOT_, symObjAddr: 0xA3AC, symBinAddr: 0x10000A9A4, symSize: 0xE0 }
  - { offsetInCU: 0x224B9, offset: 0x224B9, size: 0x8, addend: 0x0, symName: __ZNSt3__117__compressed_pairIPNS_4pairIiiEENS_9allocatorIS2_EEE5firstB7v160006Ev, symObjAddr: 0xA48C, symBinAddr: 0x10000AA84, symSize: 0x24 }
  - { offsetInCU: 0x224DF, offset: 0x224DF, size: 0x8, addend: 0x0, symName: __ZNSt3__122__compressed_pair_elemIPNS_4pairIiiEELi0ELb0EE5__getB7v160006Ev, symObjAddr: 0xA4B0, symBinAddr: 0x10000AAA8, symSize: 0x14 }
  - { offsetInCU: 0x22520, offset: 0x22520, size: 0x8, addend: 0x0, symName: __ZNSt3__16vectorINS_4pairIiiEENS_9allocatorIS2_EEE21_ConstructTransactionC1B7v160006ERS5_m, symObjAddr: 0xA4C4, symBinAddr: 0x10000AABC, symSize: 0x3C }
  - { offsetInCU: 0x22568, offset: 0x22568, size: 0x8, addend: 0x0, symName: __ZNSt3__116allocator_traitsINS_9allocatorINS_4pairIiiEEEEE9constructB7v160006IS3_JRKS3_EvEEvRS4_PT_DpOT0_, symObjAddr: 0xA500, symBinAddr: 0x10000AAF8, symSize: 0x34 }
  - { offsetInCU: 0x225BF, offset: 0x225BF, size: 0x8, addend: 0x0, symName: __ZNSt3__16vectorINS_4pairIiiEENS_9allocatorIS2_EEE7__allocB7v160006Ev, symObjAddr: 0xA534, symBinAddr: 0x10000AB2C, symSize: 0x28 }
  - { offsetInCU: 0x225E5, offset: 0x225E5, size: 0x8, addend: 0x0, symName: __ZNSt3__16vectorINS_4pairIiiEENS_9allocatorIS2_EEE21_ConstructTransactionD1B7v160006Ev, symObjAddr: 0xA570, symBinAddr: 0x10000AB68, symSize: 0x2C }
  - { offsetInCU: 0x2260F, offset: 0x2260F, size: 0x8, addend: 0x0, symName: __ZNSt3__16vectorINS_4pairIiiEENS_9allocatorIS2_EEE21_ConstructTransactionC2B7v160006ERS5_m, symObjAddr: 0xA59C, symBinAddr: 0x10000AB94, symSize: 0x44 }
  - { offsetInCU: 0x22657, offset: 0x22657, size: 0x8, addend: 0x0, symName: __ZNSt3__19allocatorINS_4pairIiiEEE9constructB7v160006IS2_JRKS2_EEEvPT_DpOT0_, symObjAddr: 0xA5E0, symBinAddr: 0x10000ABD8, symSize: 0x28 }
  - { offsetInCU: 0x226AD, offset: 0x226AD, size: 0x8, addend: 0x0, symName: __ZNSt3__117__compressed_pairIPNS_4pairIiiEENS_9allocatorIS2_EEE6secondB7v160006Ev, symObjAddr: 0xA608, symBinAddr: 0x10000AC00, symSize: 0x24 }
  - { offsetInCU: 0x226D3, offset: 0x226D3, size: 0x8, addend: 0x0, symName: __ZNSt3__122__compressed_pair_elemINS_9allocatorINS_4pairIiiEEEELi1ELb1EE5__getB7v160006Ev, symObjAddr: 0xA62C, symBinAddr: 0x10000AC24, symSize: 0x14 }
  - { offsetInCU: 0x226F9, offset: 0x226F9, size: 0x8, addend: 0x0, symName: __ZNSt3__16vectorINS_4pairIiiEENS_9allocatorIS2_EEE21_ConstructTransactionD2B7v160006Ev, symObjAddr: 0xA640, symBinAddr: 0x10000AC38, symSize: 0x20 }
  - { offsetInCU: 0x22723, offset: 0x22723, size: 0x8, addend: 0x0, symName: __ZNKSt3__16vectorINS_4pairIiiEENS_9allocatorIS2_EEE11__recommendB7v160006Em, symObjAddr: 0xA660, symBinAddr: 0x10000AC58, symSize: 0xB4 }
  - { offsetInCU: 0x22778, offset: 0x22778, size: 0x8, addend: 0x0, symName: __ZNKSt3__16vectorINS_4pairIiiEENS_9allocatorIS2_EEE4sizeB7v160006Ev, symObjAddr: 0xA714, symBinAddr: 0x10000AD0C, symSize: 0x28 }
  - { offsetInCU: 0x2279E, offset: 0x2279E, size: 0x8, addend: 0x0, symName: __ZNSt3__114__split_bufferINS_4pairIiiEERNS_9allocatorIS2_EEEC1EmmS5_, symObjAddr: 0xA73C, symBinAddr: 0x10000AD34, symSize: 0x44 }
  - { offsetInCU: 0x227F4, offset: 0x227F4, size: 0x8, addend: 0x0, symName: __ZNSt3__114__split_bufferINS_4pairIiiEERNS_9allocatorIS2_EEED1Ev, symObjAddr: 0xA898, symBinAddr: 0x10000AE90, symSize: 0x2C }
  - { offsetInCU: 0x22820, offset: 0x22820, size: 0x8, addend: 0x0, symName: __ZNKSt3__16vectorINS_4pairIiiEENS_9allocatorIS2_EEE8max_sizeEv, symObjAddr: 0xA8C4, symBinAddr: 0x10000AEBC, symSize: 0x74 }
  - { offsetInCU: 0x22848, offset: 0x22848, size: 0x8, addend: 0x0, symName: __ZNKSt3__16vectorINS_4pairIiiEENS_9allocatorIS2_EEE20__throw_length_errorB7v160006Ev, symObjAddr: 0xA938, symBinAddr: 0x10000AF30, symSize: 0x1C }
  - { offsetInCU: 0x2286E, offset: 0x2286E, size: 0x8, addend: 0x0, symName: __ZNKSt3__16vectorINS_4pairIiiEENS_9allocatorIS2_EEE8capacityB7v160006Ev, symObjAddr: 0xA954, symBinAddr: 0x10000AF4C, symSize: 0x40 }
  - { offsetInCU: 0x2289F, offset: 0x2289F, size: 0x8, addend: 0x0, symName: __ZNSt3__116allocator_traitsINS_9allocatorINS_4pairIiiEEEEE8max_sizeB7v160006IS4_vEEmRKS4_, symObjAddr: 0xA994, symBinAddr: 0x10000AF8C, symSize: 0x24 }
  - { offsetInCU: 0x228CD, offset: 0x228CD, size: 0x8, addend: 0x0, symName: __ZNKSt3__16vectorINS_4pairIiiEENS_9allocatorIS2_EEE7__allocB7v160006Ev, symObjAddr: 0xA9B8, symBinAddr: 0x10000AFB0, symSize: 0x28 }
  - { offsetInCU: 0x228F3, offset: 0x228F3, size: 0x8, addend: 0x0, symName: __ZNKSt3__19allocatorINS_4pairIiiEEE8max_sizeB7v160006Ev, symObjAddr: 0xA9E0, symBinAddr: 0x10000AFD8, symSize: 0x14 }
  - { offsetInCU: 0x22919, offset: 0x22919, size: 0x8, addend: 0x0, symName: __ZNKSt3__117__compressed_pairIPNS_4pairIiiEENS_9allocatorIS2_EEE6secondB7v160006Ev, symObjAddr: 0xA9F4, symBinAddr: 0x10000AFEC, symSize: 0x24 }
  - { offsetInCU: 0x2293F, offset: 0x2293F, size: 0x8, addend: 0x0, symName: __ZNKSt3__122__compressed_pair_elemINS_9allocatorINS_4pairIiiEEEELi1ELb1EE5__getB7v160006Ev, symObjAddr: 0xAA18, symBinAddr: 0x10000B010, symSize: 0x14 }
  - { offsetInCU: 0x22965, offset: 0x22965, size: 0x8, addend: 0x0, symName: __ZNKSt3__16vectorINS_4pairIiiEENS_9allocatorIS2_EEE9__end_capB7v160006Ev, symObjAddr: 0xAA2C, symBinAddr: 0x10000B024, symSize: 0x28 }
  - { offsetInCU: 0x2298B, offset: 0x2298B, size: 0x8, addend: 0x0, symName: __ZNKSt3__117__compressed_pairIPNS_4pairIiiEENS_9allocatorIS2_EEE5firstB7v160006Ev, symObjAddr: 0xAA54, symBinAddr: 0x10000B04C, symSize: 0x24 }
  - { offsetInCU: 0x229B1, offset: 0x229B1, size: 0x8, addend: 0x0, symName: __ZNKSt3__122__compressed_pair_elemIPNS_4pairIiiEELi0ELb0EE5__getB7v160006Ev, symObjAddr: 0xAA78, symBinAddr: 0x10000B070, symSize: 0x14 }
  - { offsetInCU: 0x229D7, offset: 0x229D7, size: 0x8, addend: 0x0, symName: __ZNSt3__114__split_bufferINS_4pairIiiEERNS_9allocatorIS2_EEEC2EmmS5_, symObjAddr: 0xAA8C, symBinAddr: 0x10000B084, symSize: 0xD4 }
  - { offsetInCU: 0x22A4A, offset: 0x22A4A, size: 0x8, addend: 0x0, symName: __ZNSt3__117__compressed_pairIPNS_4pairIiiEERNS_9allocatorIS2_EEEC1B7v160006IDnS6_EEOT_OT0_, symObjAddr: 0xAB60, symBinAddr: 0x10000B158, symSize: 0x3C }
  - { offsetInCU: 0x22AA2, offset: 0x22AA2, size: 0x8, addend: 0x0, symName: __ZNSt3__114__split_bufferINS_4pairIiiEERNS_9allocatorIS2_EEE7__allocB7v160006Ev, symObjAddr: 0xABDC, symBinAddr: 0x10000B1D4, symSize: 0x28 }
  - { offsetInCU: 0x22AC8, offset: 0x22AC8, size: 0x8, addend: 0x0, symName: __ZNSt3__114__split_bufferINS_4pairIiiEERNS_9allocatorIS2_EEE9__end_capB7v160006Ev, symObjAddr: 0xAC04, symBinAddr: 0x10000B1FC, symSize: 0x28 }
  - { offsetInCU: 0x22AEE, offset: 0x22AEE, size: 0x8, addend: 0x0, symName: __ZNSt3__117__compressed_pairIPNS_4pairIiiEERNS_9allocatorIS2_EEEC2B7v160006IDnS6_EEOT_OT0_, symObjAddr: 0xAC2C, symBinAddr: 0x10000B224, symSize: 0x48 }
  - { offsetInCU: 0x22B46, offset: 0x22B46, size: 0x8, addend: 0x0, symName: __ZNSt3__122__compressed_pair_elemIRNS_9allocatorINS_4pairIiiEEEELi1ELb0EEC2B7v160006IS5_vEEOT_, symObjAddr: 0xAC74, symBinAddr: 0x10000B26C, symSize: 0x20 }
  - { offsetInCU: 0x22B88, offset: 0x22B88, size: 0x8, addend: 0x0, symName: __ZNSt3__19allocatorINS_4pairIiiEEE8allocateB7v160006Em, symObjAddr: 0xAC94, symBinAddr: 0x10000B28C, symSize: 0x84 }
  - { offsetInCU: 0x22BBC, offset: 0x22BBC, size: 0x8, addend: 0x0, symName: __ZNSt3__117__compressed_pairIPNS_4pairIiiEERNS_9allocatorIS2_EEE6secondB7v160006Ev, symObjAddr: 0xAD18, symBinAddr: 0x10000B310, symSize: 0x28 }
  - { offsetInCU: 0x22BE2, offset: 0x22BE2, size: 0x8, addend: 0x0, symName: __ZNSt3__122__compressed_pair_elemIRNS_9allocatorINS_4pairIiiEEEELi1ELb0EE5__getB7v160006Ev, symObjAddr: 0xAD40, symBinAddr: 0x10000B338, symSize: 0x18 }
  - { offsetInCU: 0x22C08, offset: 0x22C08, size: 0x8, addend: 0x0, symName: __ZNSt3__117__compressed_pairIPNS_4pairIiiEERNS_9allocatorIS2_EEE5firstB7v160006Ev, symObjAddr: 0xAD58, symBinAddr: 0x10000B350, symSize: 0x24 }
  - { offsetInCU: 0x22C2E, offset: 0x22C2E, size: 0x8, addend: 0x0, symName: __ZNKSt3__16vectorINS_4pairIiiEENS_9allocatorIS2_EEE17__annotate_deleteB7v160006Ev, symObjAddr: 0xAD7C, symBinAddr: 0x10000B374, symSize: 0xB8 }
  - { offsetInCU: 0x22C54, offset: 0x22C54, size: 0x8, addend: 0x0, symName: __ZNSt3__116reverse_iteratorIPNS_4pairIiiEEEC1B7v160006ES3_, symObjAddr: 0xAF68, symBinAddr: 0x10000B560, symSize: 0x34 }
  - { offsetInCU: 0x22C8C, offset: 0x22C8C, size: 0x8, addend: 0x0, symName: __ZNKSt3__116reverse_iteratorIPNS_4pairIiiEEE4baseB7v160006Ev, symObjAddr: 0xAF9C, symBinAddr: 0x10000B594, symSize: 0x18 }
  - { offsetInCU: 0x22CB2, offset: 0x22CB2, size: 0x8, addend: 0x0, symName: __ZNKSt3__16vectorINS_4pairIiiEENS_9allocatorIS2_EEE14__annotate_newB7v160006Em, symObjAddr: 0xAFF0, symBinAddr: 0x10000B5E8, symSize: 0xAC }
  - { offsetInCU: 0x22CE7, offset: 0x22CE7, size: 0x8, addend: 0x0, symName: __ZNKSt3__16vectorINS_4pairIiiEENS_9allocatorIS2_EEE31__annotate_contiguous_containerB7v160006EPKvS7_S7_S7_, symObjAddr: 0xB0AC, symBinAddr: 0x10000B6A4, symSize: 0x20 }
  - { offsetInCU: 0x22D39, offset: 0x22D39, size: 0x8, addend: 0x0, symName: __ZNKSt3__16vectorINS_4pairIiiEENS_9allocatorIS2_EEE4dataB7v160006Ev, symObjAddr: 0xB0CC, symBinAddr: 0x10000B6C4, symSize: 0x28 }
  - { offsetInCU: 0x22D5F, offset: 0x22D5F, size: 0x8, addend: 0x0, symName: __ZNSt3__129_AllocatorDestroyRangeReverseINS_9allocatorINS_4pairIiiEEEENS_16reverse_iteratorIPS3_EEEC1B7v160006ERS4_RS7_SA_, symObjAddr: 0xB140, symBinAddr: 0x10000B738, symSize: 0x44 }
  - { offsetInCU: 0x22DB6, offset: 0x22DB6, size: 0x8, addend: 0x0, symName: __ZNSt3__116allocator_traitsINS_9allocatorINS_4pairIiiEEEEE9constructB7v160006IS3_JS3_EvEEvRS4_PT_DpOT0_, symObjAddr: 0xB1CC, symBinAddr: 0x10000B7C4, symSize: 0x34 }
  - { offsetInCU: 0x22E0D, offset: 0x22E0D, size: 0x8, addend: 0x0, symName: __ZNKSt3__116reverse_iteratorIPNS_4pairIiiEEEdeB7v160006Ev, symObjAddr: 0xB224, symBinAddr: 0x10000B81C, symSize: 0x28 }
  - { offsetInCU: 0x22E41, offset: 0x22E41, size: 0x8, addend: 0x0, symName: __ZNSt3__116reverse_iteratorIPNS_4pairIiiEEEppB7v160006Ev, symObjAddr: 0xB24C, symBinAddr: 0x10000B844, symSize: 0x20 }
  - { offsetInCU: 0x22E67, offset: 0x22E67, size: 0x8, addend: 0x0, symName: __ZNSt3__128__exception_guard_exceptionsINS_29_AllocatorDestroyRangeReverseINS_9allocatorINS_4pairIiiEEEENS_16reverse_iteratorIPS4_EEEEE10__completeB7v160006Ev, symObjAddr: 0xB26C, symBinAddr: 0x10000B864, symSize: 0x1C }
  - { offsetInCU: 0x22E8D, offset: 0x22E8D, size: 0x8, addend: 0x0, symName: __ZNSt3__128__exception_guard_exceptionsINS_29_AllocatorDestroyRangeReverseINS_9allocatorINS_4pairIiiEEEENS_16reverse_iteratorIPS4_EEEEED1B7v160006Ev, symObjAddr: 0xB288, symBinAddr: 0x10000B880, symSize: 0x2C }
  - { offsetInCU: 0x22EB7, offset: 0x22EB7, size: 0x8, addend: 0x0, symName: __ZNSt3__128__exception_guard_exceptionsINS_29_AllocatorDestroyRangeReverseINS_9allocatorINS_4pairIiiEEEENS_16reverse_iteratorIPS4_EEEEEC1B7v160006ES9_, symObjAddr: 0xB2B4, symBinAddr: 0x10000B8AC, symSize: 0x34 }
  - { offsetInCU: 0x22EF0, offset: 0x22EF0, size: 0x8, addend: 0x0, symName: __ZNSt3__128__exception_guard_exceptionsINS_29_AllocatorDestroyRangeReverseINS_9allocatorINS_4pairIiiEEEENS_16reverse_iteratorIPS4_EEEEEC2B7v160006ES9_, symObjAddr: 0xB2E8, symBinAddr: 0x10000B8E0, symSize: 0x30 }
  - { offsetInCU: 0x22F29, offset: 0x22F29, size: 0x8, addend: 0x0, symName: __ZNSt3__129_AllocatorDestroyRangeReverseINS_9allocatorINS_4pairIiiEEEENS_16reverse_iteratorIPS3_EEEC2B7v160006ERS4_RS7_SA_, symObjAddr: 0xB318, symBinAddr: 0x10000B910, symSize: 0x38 }
  - { offsetInCU: 0x22F80, offset: 0x22F80, size: 0x8, addend: 0x0, symName: __ZNSt3__19allocatorINS_4pairIiiEEE9constructB7v160006IS2_JS2_EEEvPT_DpOT0_, symObjAddr: 0xB350, symBinAddr: 0x10000B948, symSize: 0x28 }
  - { offsetInCU: 0x22FDC, offset: 0x22FDC, size: 0x8, addend: 0x0, symName: __ZNSt3__119__to_address_helperINS_16reverse_iteratorIPNS_4pairIiiEEEEvE6__callB7v160006ERKS5_, symObjAddr: 0xB378, symBinAddr: 0x10000B970, symSize: 0x4C }
  - { offsetInCU: 0x22FFF, offset: 0x22FFF, size: 0x8, addend: 0x0, symName: __ZNKSt3__116reverse_iteratorIPNS_4pairIiiEEEptB7v160006Ev, symObjAddr: 0xB3C4, symBinAddr: 0x10000B9BC, symSize: 0x24 }
  - { offsetInCU: 0x23025, offset: 0x23025, size: 0x8, addend: 0x0, symName: __ZNSt3__128__exception_guard_exceptionsINS_29_AllocatorDestroyRangeReverseINS_9allocatorINS_4pairIiiEEEENS_16reverse_iteratorIPS4_EEEEED2B7v160006Ev, symObjAddr: 0xB3E8, symBinAddr: 0x10000B9E0, symSize: 0x48 }
  - { offsetInCU: 0x2304F, offset: 0x2304F, size: 0x8, addend: 0x0, symName: __ZNKSt3__129_AllocatorDestroyRangeReverseINS_9allocatorINS_4pairIiiEEEENS_16reverse_iteratorIPS3_EEEclB7v160006Ev, symObjAddr: 0xB430, symBinAddr: 0x10000BA28, symSize: 0xB4 }
  - { offsetInCU: 0x23076, offset: 0x23076, size: 0x8, addend: 0x0, symName: __ZNSt3__116reverse_iteratorINS0_IPNS_4pairIiiEEEEEC1B7v160006ES4_, symObjAddr: 0xB554, symBinAddr: 0x10000BB4C, symSize: 0x3C }
  - { offsetInCU: 0x230AE, offset: 0x230AE, size: 0x8, addend: 0x0, symName: __ZNSt3__116allocator_traitsINS_9allocatorINS_4pairIiiEEEEE7destroyB7v160006IS3_vEEvRS4_PT_, symObjAddr: 0xB5F0, symBinAddr: 0x10000BBE8, symSize: 0x2C }
  - { offsetInCU: 0x230EB, offset: 0x230EB, size: 0x8, addend: 0x0, symName: __ZNSt3__116reverse_iteratorINS0_IPNS_4pairIiiEEEEEppB7v160006Ev, symObjAddr: 0xB640, symBinAddr: 0x10000BC38, symSize: 0x30 }
  - { offsetInCU: 0x23111, offset: 0x23111, size: 0x8, addend: 0x0, symName: __ZNKSt3__116reverse_iteratorINS0_IPNS_4pairIiiEEEEE4baseB7v160006Ev, symObjAddr: 0xB670, symBinAddr: 0x10000BC68, symSize: 0x24 }
  - { offsetInCU: 0x23137, offset: 0x23137, size: 0x8, addend: 0x0, symName: __ZNSt3__19allocatorINS_4pairIiiEEE7destroyB7v160006EPS2_, symObjAddr: 0xB694, symBinAddr: 0x10000BC8C, symSize: 0x14 }
  - { offsetInCU: 0x23171, offset: 0x23171, size: 0x8, addend: 0x0, symName: __ZNSt3__119__to_address_helperINS_16reverse_iteratorINS1_IPNS_4pairIiiEEEEEEvE6__callB7v160006ERKS6_, symObjAddr: 0xB6A8, symBinAddr: 0x10000BCA0, symSize: 0x4C }
  - { offsetInCU: 0x23194, offset: 0x23194, size: 0x8, addend: 0x0, symName: __ZNKSt3__116reverse_iteratorINS0_IPNS_4pairIiiEEEEEptB7v160006Ev, symObjAddr: 0xB6F4, symBinAddr: 0x10000BCEC, symSize: 0x24 }
  - { offsetInCU: 0x231BA, offset: 0x231BA, size: 0x8, addend: 0x0, symName: __ZNKSt3__116reverse_iteratorINS0_IPNS_4pairIiiEEEEEdeB7v160006Ev, symObjAddr: 0xB718, symBinAddr: 0x10000BD10, symSize: 0x34 }
  - { offsetInCU: 0x231EE, offset: 0x231EE, size: 0x8, addend: 0x0, symName: __ZNSt3__116reverse_iteratorIPNS_4pairIiiEEEmmB7v160006Ev, symObjAddr: 0xB74C, symBinAddr: 0x10000BD44, symSize: 0x20 }
  - { offsetInCU: 0x23214, offset: 0x23214, size: 0x8, addend: 0x0, symName: __ZNSt3__116reverse_iteratorINS0_IPNS_4pairIiiEEEEEC2B7v160006ES4_, symObjAddr: 0xB76C, symBinAddr: 0x10000BD64, symSize: 0x2C }
  - { offsetInCU: 0x2324C, offset: 0x2324C, size: 0x8, addend: 0x0, symName: __ZNSt3__116reverse_iteratorIPNS_4pairIiiEEEC2B7v160006ES3_, symObjAddr: 0xB798, symBinAddr: 0x10000BD90, symSize: 0x28 }
  - { offsetInCU: 0x23284, offset: 0x23284, size: 0x8, addend: 0x0, symName: __ZNSt3__114__split_bufferINS_4pairIiiEERNS_9allocatorIS2_EEED2Ev, symObjAddr: 0xB7C0, symBinAddr: 0x10000BDB8, symSize: 0x80 }
  - { offsetInCU: 0x232B0, offset: 0x232B0, size: 0x8, addend: 0x0, symName: __ZNSt3__114__split_bufferINS_4pairIiiEERNS_9allocatorIS2_EEE5clearB7v160006Ev, symObjAddr: 0xB840, symBinAddr: 0x10000BE38, symSize: 0x28 }
  - { offsetInCU: 0x232D6, offset: 0x232D6, size: 0x8, addend: 0x0, symName: __ZNSt3__116allocator_traitsINS_9allocatorINS_4pairIiiEEEEE10deallocateB7v160006ERS4_PS3_m, symObjAddr: 0xB868, symBinAddr: 0x10000BE60, symSize: 0x34 }
  - { offsetInCU: 0x23318, offset: 0x23318, size: 0x8, addend: 0x0, symName: __ZNKSt3__114__split_bufferINS_4pairIiiEERNS_9allocatorIS2_EEE8capacityB7v160006Ev, symObjAddr: 0xB89C, symBinAddr: 0x10000BE94, symSize: 0x40 }
  - { offsetInCU: 0x2333E, offset: 0x2333E, size: 0x8, addend: 0x0, symName: __ZNSt3__114__split_bufferINS_4pairIiiEERNS_9allocatorIS2_EEE17__destruct_at_endB7v160006EPS2_, symObjAddr: 0xB8DC, symBinAddr: 0x10000BED4, symSize: 0x2C }
  - { offsetInCU: 0x23372, offset: 0x23372, size: 0x8, addend: 0x0, symName: __ZNSt3__114__split_bufferINS_4pairIiiEERNS_9allocatorIS2_EEE17__destruct_at_endB7v160006EPS2_NS_17integral_constantIbLb0EEE, symObjAddr: 0xB908, symBinAddr: 0x10000BF00, symSize: 0x94 }
  - { offsetInCU: 0x233B2, offset: 0x233B2, size: 0x8, addend: 0x0, symName: __ZNSt3__19allocatorINS_4pairIiiEEE10deallocateB7v160006EPS2_m, symObjAddr: 0xB99C, symBinAddr: 0x10000BF94, symSize: 0x70 }
  - { offsetInCU: 0x233F4, offset: 0x233F4, size: 0x8, addend: 0x0, symName: __ZNKSt3__114__split_bufferINS_4pairIiiEERNS_9allocatorIS2_EEE9__end_capB7v160006Ev, symObjAddr: 0xBA0C, symBinAddr: 0x10000C004, symSize: 0x28 }
  - { offsetInCU: 0x2341A, offset: 0x2341A, size: 0x8, addend: 0x0, symName: __ZNKSt3__117__compressed_pairIPNS_4pairIiiEERNS_9allocatorIS2_EEE5firstB7v160006Ev, symObjAddr: 0xBA34, symBinAddr: 0x10000C02C, symSize: 0x24 }
  - { offsetInCU: 0x23440, offset: 0x23440, size: 0x8, addend: 0x0, symName: __ZNKSt3__111__wrap_iterIPNS_4pairIiiEEE4baseB7v160006Ev, symObjAddr: 0xBC58, symBinAddr: 0x10000C250, symSize: 0x18 }
  - { offsetInCU: 0x23466, offset: 0x23466, size: 0x8, addend: 0x0, symName: __ZNKSt3__111__wrap_iterIPNS_4pairIiiEEEplB7v160006El, symObjAddr: 0xBC70, symBinAddr: 0x10000C268, symSize: 0x3C }
  - { offsetInCU: 0x234A8, offset: 0x234A8, size: 0x8, addend: 0x0, symName: __ZNKSt3__17greaterINS_4pairIiiEEEclB7v160006ERKS2_S5_, symObjAddr: 0xBCAC, symBinAddr: 0x10000C2A4, symSize: 0x34 }
  - { offsetInCU: 0x234EC, offset: 0x234EC, size: 0x8, addend: 0x0, symName: __ZNKSt3__111__wrap_iterIPNS_4pairIiiEEEdeB7v160006Ev, symObjAddr: 0xBCE0, symBinAddr: 0x10000C2D8, symSize: 0x18 }
  - { offsetInCU: 0x23512, offset: 0x23512, size: 0x8, addend: 0x0, symName: __ZNSt3__111__wrap_iterIPNS_4pairIiiEEEmmB7v160006Ev, symObjAddr: 0xBCF8, symBinAddr: 0x10000C2F0, symSize: 0x20 }
  - { offsetInCU: 0x23538, offset: 0x23538, size: 0x8, addend: 0x0, symName: __ZNSt3__18_IterOpsINS_17_ClassicAlgPolicyEE11__iter_moveB7v160006IRNS_11__wrap_iterIPNS_4pairIiiEEEEEENS_9enable_ifIXsr12is_referenceIDTdeclsr3stdE7declvalIRT_EEEEE5valueEDTclsr3stdE4movedeclsr3stdE7declvalISC_EEEEE4typeEOSB_, symObjAddr: 0xBD18, symBinAddr: 0x10000C310, symSize: 0x28 }
  - { offsetInCU: 0x23564, offset: 0x23564, size: 0x8, addend: 0x0, symName: __ZNSt3__14pairIiiEaSB7v160006ERKS1_, symObjAddr: 0xBD40, symBinAddr: 0x10000C338, symSize: 0x30 }
  - { offsetInCU: 0x23598, offset: 0x23598, size: 0x8, addend: 0x0, symName: __ZNSt3__111__wrap_iterIPNS_4pairIiiEEEpLB7v160006El, symObjAddr: 0xBD70, symBinAddr: 0x10000C368, symSize: 0x28 }
  - { offsetInCU: 0x235CC, offset: 0x235CC, size: 0x8, addend: 0x0, symName: __ZNSt3__18_IterOpsINS_17_ClassicAlgPolicyEE25__validate_iter_referenceB7v160006IRNS_11__wrap_iterIPNS_4pairIiiEEEEEEvv, symObjAddr: 0xBE60, symBinAddr: 0x10000C458, symSize: 0x4 }
  - { offsetInCU: 0x235EA, offset: 0x235EA, size: 0x8, addend: 0x0, symName: __ZNSt3__16vectorINS_4pairIiiEENS_9allocatorIS2_EEE11__make_iterB7v160006EPS2_, symObjAddr: 0xBE64, symBinAddr: 0x10000C45C, symSize: 0x34 }
  - { offsetInCU: 0x2361F, offset: 0x2361F, size: 0x8, addend: 0x0, symName: __ZNSt3__111__wrap_iterIPNS_4pairIiiEEEC1B7v160006EPKvS3_, symObjAddr: 0xBE98, symBinAddr: 0x10000C490, symSize: 0x3C }
  - { offsetInCU: 0x23665, offset: 0x23665, size: 0x8, addend: 0x0, symName: __ZNSt3__111__wrap_iterIPNS_4pairIiiEEEC2B7v160006EPKvS3_, symObjAddr: 0xBED4, symBinAddr: 0x10000C4CC, symSize: 0x24 }
  - { offsetInCU: 0x236AB, offset: 0x236AB, size: 0x8, addend: 0x0, symName: __ZNKSt3__16vectorINS_4pairIiiEENS_9allocatorIS2_EEE5emptyB7v160006Ev, symObjAddr: 0xBEF8, symBinAddr: 0x10000C4F0, symSize: 0x28 }
  - { offsetInCU: 0x236D1, offset: 0x236D1, size: 0x8, addend: 0x0, symName: __ZNKSt3__16vectorINS_4pairIiiEENS_9allocatorIS2_EEE5frontB7v160006Ev, symObjAddr: 0xBF20, symBinAddr: 0x10000C518, symSize: 0x18 }
  - { offsetInCU: 0x236F7, offset: 0x236F7, size: 0x8, addend: 0x0, symName: __ZNSt3__16vectorINS_4pairIiiEENS_9allocatorIS2_EEE8pop_backEv, symObjAddr: 0xBF90, symBinAddr: 0x10000C588, symSize: 0x2C }
  - { offsetInCU: 0x2371F, offset: 0x2371F, size: 0x8, addend: 0x0, symName: __ZNSt3__111__wrap_iterIPNS_4pairIiiEEEppB7v160006Ev, symObjAddr: 0xC274, symBinAddr: 0x10000C86C, symSize: 0x20 }
  - { offsetInCU: 0x23745, offset: 0x23745, size: 0x8, addend: 0x0, symName: __ZNSt3__16vectorINS_4pairIiiEENS_9allocatorIS2_EEE17__destruct_at_endB7v160006EPS2_, symObjAddr: 0xC294, symBinAddr: 0x10000C88C, symSize: 0x88 }
  - { offsetInCU: 0x23789, offset: 0x23789, size: 0x8, addend: 0x0, symName: __ZNSt3__16vectorINS_4pairIiiEENS_9allocatorIS2_EEE27__invalidate_iterators_pastB7v160006EPS2_, symObjAddr: 0xC31C, symBinAddr: 0x10000C914, symSize: 0x14 }
  - { offsetInCU: 0x237C0, offset: 0x237C0, size: 0x8, addend: 0x0, symName: __ZNSt3__16vectorINS_4pairIiiEENS_9allocatorIS2_EEE22__base_destruct_at_endB7v160006EPS2_, symObjAddr: 0xC330, symBinAddr: 0x10000C928, symSize: 0xA0 }
  - { offsetInCU: 0x23804, offset: 0x23804, size: 0x8, addend: 0x0, symName: __ZNKSt3__16vectorINS_4pairIiiEENS_9allocatorIS2_EEE17__annotate_shrinkB7v160006Em, symObjAddr: 0xC3D0, symBinAddr: 0x10000C9C8, symSize: 0xB4 }
  - { offsetInCU: 0x23839, offset: 0x23839, size: 0x8, addend: 0x0, symName: __ZNSt3__114priority_queueINS_4pairIiiEENS_6vectorIS2_NS_9allocatorIS2_EEEENS_7greaterIS2_EEED2Ev, symObjAddr: 0xC484, symBinAddr: 0x10000CA7C, symSize: 0x2C }
  - { offsetInCU: 0x23866, offset: 0x23866, size: 0x8, addend: 0x0, symName: __ZNSt3__16vectorINS_4pairIiiEENS_9allocatorIS2_EEED1B7v160006Ev, symObjAddr: 0xC4B0, symBinAddr: 0x10000CAA8, symSize: 0x2C }
  - { offsetInCU: 0x23890, offset: 0x23890, size: 0x8, addend: 0x0, symName: __ZNSt3__16vectorINS_4pairIiiEENS_9allocatorIS2_EEED2B7v160006Ev, symObjAddr: 0xC4DC, symBinAddr: 0x10000CAD4, symSize: 0x3C }
  - { offsetInCU: 0x238BA, offset: 0x238BA, size: 0x8, addend: 0x0, symName: __ZNSt3__16vectorINS_4pairIiiEENS_9allocatorIS2_EEE16__destroy_vectorC1ERS5_, symObjAddr: 0xC518, symBinAddr: 0x10000CB10, symSize: 0x34 }
  - { offsetInCU: 0x238F3, offset: 0x238F3, size: 0x8, addend: 0x0, symName: __ZNSt3__16vectorINS_4pairIiiEENS_9allocatorIS2_EEE16__destroy_vectorclB7v160006Ev, symObjAddr: 0xC54C, symBinAddr: 0x10000CB44, symSize: 0x9C }
  - { offsetInCU: 0x23919, offset: 0x23919, size: 0x8, addend: 0x0, symName: __ZNSt3__16vectorINS_4pairIiiEENS_9allocatorIS2_EEE16__destroy_vectorC2ERS5_, symObjAddr: 0xC5E8, symBinAddr: 0x10000CBE0, symSize: 0x20 }
  - { offsetInCU: 0x23952, offset: 0x23952, size: 0x8, addend: 0x0, symName: __ZNSt3__16vectorINS_4pairIiiEENS_9allocatorIS2_EEE7__clearB7v160006Ev, symObjAddr: 0xC618, symBinAddr: 0x10000CC10, symSize: 0x28 }
  - { offsetInCU: 0x23978, offset: 0x23978, size: 0x8, addend: 0x0, symName: __ZNSt3__14listI5CoinsNS_9allocatorIS1_EEED2Ev, symObjAddr: 0xC640, symBinAddr: 0x10000CC38, symSize: 0x2C }
  - { offsetInCU: 0x239A5, offset: 0x239A5, size: 0x8, addend: 0x0, symName: __ZNSt3__110__list_impI5CoinsNS_9allocatorIS1_EEED2Ev, symObjAddr: 0xC66C, symBinAddr: 0x10000CC64, symSize: 0x34 }
  - { offsetInCU: 0x239D1, offset: 0x239D1, size: 0x8, addend: 0x0, symName: __ZNSt3__110__list_impI5CoinsNS_9allocatorIS1_EEE5clearEv, symObjAddr: 0xC6A0, symBinAddr: 0x10000CC98, symSize: 0x100 }
  - { offsetInCU: 0x23A41, offset: 0x23A41, size: 0x8, addend: 0x0, symName: __ZNKSt3__110__list_impI5CoinsNS_9allocatorIS1_EEE5emptyB7v160006Ev, symObjAddr: 0xC7B0, symBinAddr: 0x10000CDA8, symSize: 0x34 }
  - { offsetInCU: 0x23A67, offset: 0x23A67, size: 0x8, addend: 0x0, symName: __ZNSt3__110__list_impI5CoinsNS_9allocatorIS1_EEE12__node_allocB7v160006Ev, symObjAddr: 0xC7E4, symBinAddr: 0x10000CDDC, symSize: 0x28 }
  - { offsetInCU: 0x23A8D, offset: 0x23A8D, size: 0x8, addend: 0x0, symName: __ZNKSt3__110__list_impI5CoinsNS_9allocatorIS1_EEE13__end_as_linkB7v160006Ev, symObjAddr: 0xC80C, symBinAddr: 0x10000CE04, symSize: 0x58 }
  - { offsetInCU: 0x23AB3, offset: 0x23AB3, size: 0x8, addend: 0x0, symName: __ZNSt3__110__list_impI5CoinsNS_9allocatorIS1_EEE14__unlink_nodesEPNS_16__list_node_baseIS1_PvEES8_, symObjAddr: 0xC864, symBinAddr: 0x10000CE5C, symSize: 0x3C }
  - { offsetInCU: 0x23AE8, offset: 0x23AE8, size: 0x8, addend: 0x0, symName: __ZNSt3__110__list_impI5CoinsNS_9allocatorIS1_EEE4__szB7v160006Ev, symObjAddr: 0xC8A0, symBinAddr: 0x10000CE98, symSize: 0x28 }
  - { offsetInCU: 0x23B0E, offset: 0x23B0E, size: 0x8, addend: 0x0, symName: __ZNSt3__116__list_node_baseI5CoinsPvE9__as_nodeB7v160006Ev, symObjAddr: 0xC8C8, symBinAddr: 0x10000CEC0, symSize: 0x24 }
  - { offsetInCU: 0x23B34, offset: 0x23B34, size: 0x8, addend: 0x0, symName: __ZNSt3__116allocator_traitsINS_9allocatorINS_11__list_nodeI5CoinsPvEEEEE7destroyB7v160006IS3_vvEEvRS6_PT_, symObjAddr: 0xC8EC, symBinAddr: 0x10000CEE4, symSize: 0x14 }
  - { offsetInCU: 0x23B6E, offset: 0x23B6E, size: 0x8, addend: 0x0, symName: __ZNSt3__116allocator_traitsINS_9allocatorINS_11__list_nodeI5CoinsPvEEEEE10deallocateB7v160006ERS6_PS5_m, symObjAddr: 0xC900, symBinAddr: 0x10000CEF8, symSize: 0x34 }
  - { offsetInCU: 0x23BB0, offset: 0x23BB0, size: 0x8, addend: 0x0, symName: __ZNKSt3__110__list_impI5CoinsNS_9allocatorIS1_EEE4__szB7v160006Ev, symObjAddr: 0xC944, symBinAddr: 0x10000CF3C, symSize: 0x28 }
  - { offsetInCU: 0x23BD6, offset: 0x23BD6, size: 0x8, addend: 0x0, symName: __ZNKSt3__117__compressed_pairImNS_9allocatorINS_11__list_nodeI5CoinsPvEEEEE5firstB7v160006Ev, symObjAddr: 0xC96C, symBinAddr: 0x10000CF64, symSize: 0x24 }
  - { offsetInCU: 0x23BFC, offset: 0x23BFC, size: 0x8, addend: 0x0, symName: __ZNSt3__117__compressed_pairImNS_9allocatorINS_11__list_nodeI5CoinsPvEEEEE6secondB7v160006Ev, symObjAddr: 0xC990, symBinAddr: 0x10000CF88, symSize: 0x24 }
  - { offsetInCU: 0x23C22, offset: 0x23C22, size: 0x8, addend: 0x0, symName: __ZNSt3__122__compressed_pair_elemINS_9allocatorINS_11__list_nodeI5CoinsPvEEEELi1ELb1EE5__getB7v160006Ev, symObjAddr: 0xC9B4, symBinAddr: 0x10000CFAC, symSize: 0x14 }
  - { offsetInCU: 0x23C48, offset: 0x23C48, size: 0x8, addend: 0x0, symName: __ZNSt3__126__list_node_pointer_traitsI5CoinsPvE26__unsafe_link_pointer_castB7v160006EPNS_16__list_node_baseIS1_S2_EE, symObjAddr: 0xC9C8, symBinAddr: 0x10000CFC0, symSize: 0x14 }
  - { offsetInCU: 0x23C6C, offset: 0x23C6C, size: 0x8, addend: 0x0, symName: __ZNSt3__116__list_node_baseI5CoinsPvE6__selfB7v160006Ev, symObjAddr: 0xC9DC, symBinAddr: 0x10000CFD4, symSize: 0x24 }
  - { offsetInCU: 0x23C98, offset: 0x23C98, size: 0x8, addend: 0x0, symName: __ZNSt3__114pointer_traitsIPNS_16__list_node_baseI5CoinsPvEEE10pointer_toB7v160006ERS4_, symObjAddr: 0xCA00, symBinAddr: 0x10000CFF8, symSize: 0x14 }
  - { offsetInCU: 0x23CBB, offset: 0x23CBB, size: 0x8, addend: 0x0, symName: __ZNSt3__117__compressed_pairImNS_9allocatorINS_11__list_nodeI5CoinsPvEEEEE5firstB7v160006Ev, symObjAddr: 0xCA14, symBinAddr: 0x10000D00C, symSize: 0x24 }
  - { offsetInCU: 0x23CE1, offset: 0x23CE1, size: 0x8, addend: 0x0, symName: __ZNSt3__19allocatorINS_11__list_nodeI5CoinsPvEEE10deallocateB7v160006EPS4_m, symObjAddr: 0xCA38, symBinAddr: 0x10000D030, symSize: 0x70 }
  - { offsetInCU: 0x23D23, offset: 0x23D23, size: 0x8, addend: 0x0, symName: __ZNKSt3__115__list_iteratorI8ObstaclePvEptB7v160006Ev, symObjAddr: 0xCAA8, symBinAddr: 0x10000D0A0, symSize: 0x30 }
  - { offsetInCU: 0x23D49, offset: 0x23D49, size: 0x8, addend: 0x0, symName: __ZNSt3__15queueI8ObstacleNS_5dequeIS1_NS_9allocatorIS1_EEEEE4pushB7v160006ERKS1_, symObjAddr: 0xCAD8, symBinAddr: 0x10000D0D0, symSize: 0x2C }
  - { offsetInCU: 0x23D7E, offset: 0x23D7E, size: 0x8, addend: 0x0, symName: __ZNSt3__14listI8ObstacleNS_9allocatorIS1_EEE5eraseENS_21__list_const_iteratorIS1_PvEE, symObjAddr: 0xCB04, symBinAddr: 0x10000D0FC, symSize: 0xA4 }
  - { offsetInCU: 0x23DF1, offset: 0x23DF1, size: 0x8, addend: 0x0, symName: __ZNSt3__121__list_const_iteratorI8ObstaclePvEC1B7v160006ERKNS_15__list_iteratorIS1_S2_EE, symObjAddr: 0xCBA8, symBinAddr: 0x10000D1A0, symSize: 0x34 }
  - { offsetInCU: 0x23E2A, offset: 0x23E2A, size: 0x8, addend: 0x0, symName: __ZNSt3__114pointer_traitsIP8ObstacleE10pointer_toB7v160006ERS1_, symObjAddr: 0xCBDC, symBinAddr: 0x10000D1D4, symSize: 0x14 }
  - { offsetInCU: 0x23E4D, offset: 0x23E4D, size: 0x8, addend: 0x0, symName: __ZNSt3__116__list_node_baseI8ObstaclePvE9__as_nodeB7v160006Ev, symObjAddr: 0xCBF0, symBinAddr: 0x10000D1E8, symSize: 0x24 }
  - { offsetInCU: 0x23E73, offset: 0x23E73, size: 0x8, addend: 0x0, symName: __ZNSt3__116__list_node_baseI8ObstaclePvE6__selfB7v160006Ev, symObjAddr: 0xCC14, symBinAddr: 0x10000D20C, symSize: 0x24 }
  - { offsetInCU: 0x23E9F, offset: 0x23E9F, size: 0x8, addend: 0x0, symName: __ZNSt3__114pointer_traitsIPNS_16__list_node_baseI8ObstaclePvEEE10pointer_toB7v160006ERS4_, symObjAddr: 0xCC38, symBinAddr: 0x10000D230, symSize: 0x14 }
  - { offsetInCU: 0x23EC2, offset: 0x23EC2, size: 0x8, addend: 0x0, symName: __ZNSt3__15dequeI8ObstacleNS_9allocatorIS1_EEE9push_backERKS1_, symObjAddr: 0xCC4C, symBinAddr: 0x10000D244, symSize: 0xA0 }
  - { offsetInCU: 0x23F08, offset: 0x23F08, size: 0x8, addend: 0x0, symName: __ZNSt3__15dequeI8ObstacleNS_9allocatorIS1_EEE7__allocB7v160006Ev, symObjAddr: 0xCCEC, symBinAddr: 0x10000D2E4, symSize: 0x28 }
  - { offsetInCU: 0x23F2E, offset: 0x23F2E, size: 0x8, addend: 0x0, symName: __ZNKSt3__15dequeI8ObstacleNS_9allocatorIS1_EEE12__back_spareB7v160006Ev, symObjAddr: 0xCD14, symBinAddr: 0x10000D30C, symSize: 0x54 }
  - { offsetInCU: 0x23F54, offset: 0x23F54, size: 0x8, addend: 0x0, symName: __ZNSt3__15dequeI8ObstacleNS_9allocatorIS1_EEE19__add_back_capacityEv, symObjAddr: 0xCD68, symBinAddr: 0x10000D360, symSize: 0x32C }
  - { offsetInCU: 0x24009, offset: 0x24009, size: 0x8, addend: 0x0, symName: __ZNSt3__116allocator_traitsINS_9allocatorI8ObstacleEEE9constructB7v160006IS2_JRKS2_EvEEvRS3_PT_DpOT0_, symObjAddr: 0xD094, symBinAddr: 0x10000D68C, symSize: 0x34 }
  - { offsetInCU: 0x24060, offset: 0x24060, size: 0x8, addend: 0x0, symName: __ZNSt3__15dequeI8ObstacleNS_9allocatorIS1_EEE3endB7v160006Ev, symObjAddr: 0xD0C8, symBinAddr: 0x10000D6C0, symSize: 0xE0 }
  - { offsetInCU: 0x240A4, offset: 0x240A4, size: 0x8, addend: 0x0, symName: __ZNKSt3__116__deque_iteratorI8ObstaclePS1_RS1_PS2_lLl512EEdeB7v160006Ev, symObjAddr: 0xD1A8, symBinAddr: 0x10000D7A0, symSize: 0x18 }
  - { offsetInCU: 0x240CA, offset: 0x240CA, size: 0x8, addend: 0x0, symName: __ZNSt3__15dequeI8ObstacleNS_9allocatorIS1_EEE6__sizeB7v160006Ev, symObjAddr: 0xD1C0, symBinAddr: 0x10000D7B8, symSize: 0x28 }
  - { offsetInCU: 0x240F0, offset: 0x240F0, size: 0x8, addend: 0x0, symName: __ZNSt3__117__compressed_pairImNS_9allocatorI8ObstacleEEE6secondB7v160006Ev, symObjAddr: 0xD1E8, symBinAddr: 0x10000D7E0, symSize: 0x24 }
  - { offsetInCU: 0x24116, offset: 0x24116, size: 0x8, addend: 0x0, symName: __ZNSt3__122__compressed_pair_elemINS_9allocatorI8ObstacleEELi1ELb1EE5__getB7v160006Ev, symObjAddr: 0xD20C, symBinAddr: 0x10000D804, symSize: 0x14 }
  - { offsetInCU: 0x2413C, offset: 0x2413C, size: 0x8, addend: 0x0, symName: __ZNKSt3__15dequeI8ObstacleNS_9allocatorIS1_EEE10__capacityB7v160006Ev, symObjAddr: 0xD220, symBinAddr: 0x10000D818, symSize: 0x60 }
  - { offsetInCU: 0x24162, offset: 0x24162, size: 0x8, addend: 0x0, symName: __ZNKSt3__15dequeI8ObstacleNS_9allocatorIS1_EEE4sizeB7v160006Ev, symObjAddr: 0xD280, symBinAddr: 0x10000D878, symSize: 0x28 }
  - { offsetInCU: 0x24188, offset: 0x24188, size: 0x8, addend: 0x0, symName: __ZNKSt3__114__split_bufferIP8ObstacleNS_9allocatorIS2_EEE4sizeB7v160006Ev, symObjAddr: 0xD2A8, symBinAddr: 0x10000D8A0, symSize: 0x28 }
  - { offsetInCU: 0x241AE, offset: 0x241AE, size: 0x8, addend: 0x0, symName: __ZNKSt3__15dequeI8ObstacleNS_9allocatorIS1_EEE6__sizeB7v160006Ev, symObjAddr: 0xD2D0, symBinAddr: 0x10000D8C8, symSize: 0x28 }
  - { offsetInCU: 0x241D4, offset: 0x241D4, size: 0x8, addend: 0x0, symName: __ZNKSt3__117__compressed_pairImNS_9allocatorI8ObstacleEEE5firstB7v160006Ev, symObjAddr: 0xD2F8, symBinAddr: 0x10000D8F0, symSize: 0x24 }
  - { offsetInCU: 0x241FA, offset: 0x241FA, size: 0x8, addend: 0x0, symName: __ZNKSt3__15dequeI8ObstacleNS_9allocatorIS1_EEE13__front_spareB7v160006Ev, symObjAddr: 0xD31C, symBinAddr: 0x10000D914, symSize: 0x18 }
  - { offsetInCU: 0x24220, offset: 0x24220, size: 0x8, addend: 0x0, symName: __ZNSt3__114__split_bufferIP8ObstacleNS_9allocatorIS2_EEE5frontB7v160006Ev, symObjAddr: 0xD334, symBinAddr: 0x10000D92C, symSize: 0x18 }
  - { offsetInCU: 0x24246, offset: 0x24246, size: 0x8, addend: 0x0, symName: __ZNSt3__114__split_bufferIP8ObstacleNS_9allocatorIS2_EEE9pop_frontB7v160006Ev, symObjAddr: 0xD34C, symBinAddr: 0x10000D944, symSize: 0x2C }
  - { offsetInCU: 0x2426C, offset: 0x2426C, size: 0x8, addend: 0x0, symName: __ZNSt3__114__split_bufferIP8ObstacleNS_9allocatorIS2_EEE9push_backB7v160006ERKS2_, symObjAddr: 0xD378, symBinAddr: 0x10000D970, symSize: 0x270 }
  - { offsetInCU: 0x242E4, offset: 0x242E4, size: 0x8, addend: 0x0, symName: __ZNKSt3__114__split_bufferIP8ObstacleNS_9allocatorIS2_EEE8capacityB7v160006Ev, symObjAddr: 0xD5E8, symBinAddr: 0x10000DBE0, symSize: 0x40 }
  - { offsetInCU: 0x2430A, offset: 0x2430A, size: 0x8, addend: 0x0, symName: __ZNKSt3__114__split_bufferIP8ObstacleNS_9allocatorIS2_EEE12__back_spareB7v160006Ev, symObjAddr: 0xD628, symBinAddr: 0x10000DC20, symSize: 0x40 }
  - { offsetInCU: 0x24330, offset: 0x24330, size: 0x8, addend: 0x0, symName: __ZNSt3__114__split_bufferIP8ObstacleNS_9allocatorIS2_EEE9push_backEOS2_, symObjAddr: 0xD668, symBinAddr: 0x10000DC60, symSize: 0x270 }
  - { offsetInCU: 0x243A8, offset: 0x243A8, size: 0x8, addend: 0x0, symName: __ZNSt3__116allocator_traitsINS_9allocatorI8ObstacleEEE8allocateB7v160006ERS3_m, symObjAddr: 0xD8D8, symBinAddr: 0x10000DED0, symSize: 0x2C }
  - { offsetInCU: 0x243DB, offset: 0x243DB, size: 0x8, addend: 0x0, symName: __ZNSt3__114__split_bufferIP8ObstacleNS_9allocatorIS2_EEE10push_frontEOS2_, symObjAddr: 0xD904, symBinAddr: 0x10000DEFC, symSize: 0x26C }
  - { offsetInCU: 0x24453, offset: 0x24453, size: 0x8, addend: 0x0, symName: __ZNSt3__114__split_bufferIP8ObstacleNS_9allocatorIS2_EEE7__allocB7v160006Ev, symObjAddr: 0xDB70, symBinAddr: 0x10000E168, symSize: 0x28 }
  - { offsetInCU: 0x24479, offset: 0x24479, size: 0x8, addend: 0x0, symName: __ZNSt3__114__split_bufferIP8ObstacleRNS_9allocatorIS2_EEEC1EmmS5_, symObjAddr: 0xDB98, symBinAddr: 0x10000E190, symSize: 0x44 }
  - { offsetInCU: 0x244D4, offset: 0x244D4, size: 0x8, addend: 0x0, symName: __ZNSt3__122__allocator_destructorINS_9allocatorI8ObstacleEEEC1B7v160006ERS3_m, symObjAddr: 0xDBDC, symBinAddr: 0x10000E1D4, symSize: 0x3C }
  - { offsetInCU: 0x245A5, offset: 0x245A5, size: 0x8, addend: 0x0, symName: __ZNSt3__110unique_ptrIP8ObstacleNS_22__allocator_destructorINS_9allocatorIS1_EEEEEC1B7v160006ILb1EvEES2_NS_16__dependent_typeINS_27__unique_ptr_deleter_sfinaeIS6_EEXT_EE20__good_rval_ref_typeE, symObjAddr: 0xDC18, symBinAddr: 0x10000E210, symSize: 0x3C }
  - { offsetInCU: 0x245F6, offset: 0x245F6, size: 0x8, addend: 0x0, symName: __ZNSt3__114__split_bufferIP8ObstacleRNS_9allocatorIS2_EEE9push_backEOS2_, symObjAddr: 0xDC54, symBinAddr: 0x10000E24C, symSize: 0x270 }
  - { offsetInCU: 0x2466E, offset: 0x2466E, size: 0x8, addend: 0x0, symName: __ZNKSt3__110unique_ptrIP8ObstacleNS_22__allocator_destructorINS_9allocatorIS1_EEEEE3getB7v160006Ev, symObjAddr: 0xDEC4, symBinAddr: 0x10000E4BC, symSize: 0x28 }
  - { offsetInCU: 0x24694, offset: 0x24694, size: 0x8, addend: 0x0, symName: __ZNSt3__110unique_ptrIP8ObstacleNS_22__allocator_destructorINS_9allocatorIS1_EEEEE7releaseB7v160006Ev, symObjAddr: 0xDEEC, symBinAddr: 0x10000E4E4, symSize: 0x44 }
  - { offsetInCU: 0x246C9, offset: 0x246C9, size: 0x8, addend: 0x0, symName: __ZNSt3__114__split_bufferIP8ObstacleNS_9allocatorIS2_EEE3endB7v160006Ev, symObjAddr: 0xDF30, symBinAddr: 0x10000E528, symSize: 0x18 }
  - { offsetInCU: 0x246EF, offset: 0x246EF, size: 0x8, addend: 0x0, symName: __ZNSt3__114__split_bufferIP8ObstacleNS_9allocatorIS2_EEE5beginB7v160006Ev, symObjAddr: 0xDF48, symBinAddr: 0x10000E540, symSize: 0x18 }
  - { offsetInCU: 0x24715, offset: 0x24715, size: 0x8, addend: 0x0, symName: __ZNSt3__114__split_bufferIP8ObstacleRNS_9allocatorIS2_EEE10push_frontERKS2_, symObjAddr: 0xDF60, symBinAddr: 0x10000E558, symSize: 0x26C }
  - { offsetInCU: 0x2478D, offset: 0x2478D, size: 0x8, addend: 0x0, symName: __ZNSt3__114__split_bufferIP8ObstacleNS_9allocatorIS2_EEE9__end_capB7v160006Ev, symObjAddr: 0xE208, symBinAddr: 0x10000E800, symSize: 0x28 }
  - { offsetInCU: 0x247B3, offset: 0x247B3, size: 0x8, addend: 0x0, symName: __ZNSt3__114__split_bufferIP8ObstacleRNS_9allocatorIS2_EEE9__end_capB7v160006Ev, symObjAddr: 0xE230, symBinAddr: 0x10000E828, symSize: 0x28 }
  - { offsetInCU: 0x247D9, offset: 0x247D9, size: 0x8, addend: 0x0, symName: __ZNSt3__110unique_ptrIP8ObstacleNS_22__allocator_destructorINS_9allocatorIS1_EEEEED1B7v160006Ev, symObjAddr: 0xE258, symBinAddr: 0x10000E850, symSize: 0x2C }
  - { offsetInCU: 0x24803, offset: 0x24803, size: 0x8, addend: 0x0, symName: __ZNSt3__114__split_bufferIP8ObstacleRNS_9allocatorIS2_EEED1Ev, symObjAddr: 0xE284, symBinAddr: 0x10000E87C, symSize: 0x2C }
  - { offsetInCU: 0x2482F, offset: 0x2482F, size: 0x8, addend: 0x0, symName: __ZNSt3__114__split_bufferIP8ObstacleNS_9allocatorIS2_EEE19__destruct_at_beginB7v160006EPS2_, symObjAddr: 0xE2B0, symBinAddr: 0x10000E8A8, symSize: 0x2C }
  - { offsetInCU: 0x24863, offset: 0x24863, size: 0x8, addend: 0x0, symName: __ZNSt3__114__split_bufferIP8ObstacleNS_9allocatorIS2_EEE19__destruct_at_beginEPS2_NS_17integral_constantIbLb1EEE, symObjAddr: 0xE2DC, symBinAddr: 0x10000E8D4, symSize: 0x20 }
  - { offsetInCU: 0x248A3, offset: 0x248A3, size: 0x8, addend: 0x0, symName: __ZNSt3__114__split_bufferIP8ObstacleRNS_9allocatorIS2_EEE18__construct_at_endINS_13move_iteratorIPS2_EEEENS_9enable_ifIXsr27__is_cpp17_forward_iteratorIT_EE5valueEvE4typeESC_SC_, symObjAddr: 0xE33C, symBinAddr: 0x10000E934, symSize: 0x104 }
  - { offsetInCU: 0x248FF, offset: 0x248FF, size: 0x8, addend: 0x0, symName: __ZNSt3__113move_iteratorIPP8ObstacleEC1B7v160006ES3_, symObjAddr: 0xE440, symBinAddr: 0x10000EA38, symSize: 0x34 }
  - { offsetInCU: 0x24937, offset: 0x24937, size: 0x8, addend: 0x0, symName: __ZNSt3__116allocator_traitsINS_9allocatorIP8ObstacleEEE9constructB7v160006IS3_JRKS3_EvEEvRS4_PT_DpOT0_, symObjAddr: 0xE474, symBinAddr: 0x10000EA6C, symSize: 0x34 }
  - { offsetInCU: 0x249AA, offset: 0x249AA, size: 0x8, addend: 0x0, symName: __ZNKSt3__114__move_trivialclB7v160006IP8ObstacleS3_Li0EEENS_4pairIPT_PT0_EES6_S6_S8_, symObjAddr: 0xE668, symBinAddr: 0x10000EC60, symSize: 0x48 }
  - { offsetInCU: 0x24A12, offset: 0x24A12, size: 0x8, addend: 0x0, symName: __ZNSt3__14pairIPP8ObstacleS3_EC1B7v160006ERKS3_S6_, symObjAddr: 0xE844, symBinAddr: 0x10000EE3C, symSize: 0x3C }
  - { offsetInCU: 0x24A58, offset: 0x24A58, size: 0x8, addend: 0x0, symName: __ZNSt3__14pairIPP8ObstacleS3_EC2B7v160006ERKS3_S6_, symObjAddr: 0xE880, symBinAddr: 0x10000EE78, symSize: 0x34 }
  - { offsetInCU: 0x24A9E, offset: 0x24A9E, size: 0x8, addend: 0x0, symName: __ZNSt3__118__unwrap_iter_implIPP8ObstacleLb1EE8__unwrapB7v160006ES3_, symObjAddr: 0xE8B4, symBinAddr: 0x10000EEAC, symSize: 0x24 }
  - { offsetInCU: 0x24AC1, offset: 0x24AC1, size: 0x8, addend: 0x0, symName: __ZNSt3__118__unwrap_iter_implIPP8ObstacleLb1EE8__rewrapB7v160006ES3_S3_, symObjAddr: 0xE8D8, symBinAddr: 0x10000EED0, symSize: 0x50 }
  - { offsetInCU: 0x24AFC, offset: 0x24AFC, size: 0x8, addend: 0x0, symName: __ZNSt3__114__split_bufferIP8ObstacleRNS_9allocatorIS2_EEE21_ConstructTransactionC1B7v160006EPPS2_m, symObjAddr: 0xE964, symBinAddr: 0x10000EF5C, symSize: 0x3C }
  - { offsetInCU: 0x24B42, offset: 0x24B42, size: 0x8, addend: 0x0, symName: __ZNSt3__116allocator_traitsINS_9allocatorIP8ObstacleEEE9constructB7v160006IS3_JS3_EvEEvRS4_PT_DpOT0_, symObjAddr: 0xE9A0, symBinAddr: 0x10000EF98, symSize: 0x34 }
  - { offsetInCU: 0x24B99, offset: 0x24B99, size: 0x8, addend: 0x0, symName: __ZNSt3__114__split_bufferIP8ObstacleRNS_9allocatorIS2_EEE7__allocB7v160006Ev, symObjAddr: 0xE9D4, symBinAddr: 0x10000EFCC, symSize: 0x28 }
  - { offsetInCU: 0x24BBF, offset: 0x24BBF, size: 0x8, addend: 0x0, symName: __ZNKSt3__113move_iteratorIPP8ObstacleEdeB7v160006Ev, symObjAddr: 0xE9FC, symBinAddr: 0x10000EFF4, symSize: 0x18 }
  - { offsetInCU: 0x24BE5, offset: 0x24BE5, size: 0x8, addend: 0x0, symName: __ZNSt3__113move_iteratorIPP8ObstacleEppB7v160006Ev, symObjAddr: 0xEA14, symBinAddr: 0x10000F00C, symSize: 0x20 }
  - { offsetInCU: 0x24C0B, offset: 0x24C0B, size: 0x8, addend: 0x0, symName: __ZNSt3__114__split_bufferIP8ObstacleRNS_9allocatorIS2_EEE21_ConstructTransactionD1B7v160006Ev, symObjAddr: 0xEA34, symBinAddr: 0x10000F02C, symSize: 0x2C }
  - { offsetInCU: 0x24C35, offset: 0x24C35, size: 0x8, addend: 0x0, symName: __ZNKSt3__113move_iteratorIPP8ObstacleE4baseB7v160006Ev, symObjAddr: 0xEAD8, symBinAddr: 0x10000F0D0, symSize: 0x18 }
  - { offsetInCU: 0x24C5B, offset: 0x24C5B, size: 0x8, addend: 0x0, symName: __ZNSt3__114__split_bufferIP8ObstacleRNS_9allocatorIS2_EEE21_ConstructTransactionC2B7v160006EPPS2_m, symObjAddr: 0xEAF0, symBinAddr: 0x10000F0E8, symSize: 0x44 }
  - { offsetInCU: 0x24CA1, offset: 0x24CA1, size: 0x8, addend: 0x0, symName: __ZNSt3__19allocatorIP8ObstacleE9constructB7v160006IS2_JS2_EEEvPT_DpOT0_, symObjAddr: 0xEB34, symBinAddr: 0x10000F12C, symSize: 0x28 }
  - { offsetInCU: 0x24CF7, offset: 0x24CF7, size: 0x8, addend: 0x0, symName: __ZNSt3__117__compressed_pairIPP8ObstacleRNS_9allocatorIS2_EEE6secondB7v160006Ev, symObjAddr: 0xEB5C, symBinAddr: 0x10000F154, symSize: 0x28 }
  - { offsetInCU: 0x24D1D, offset: 0x24D1D, size: 0x8, addend: 0x0, symName: __ZNSt3__122__compressed_pair_elemIRNS_9allocatorIP8ObstacleEELi1ELb0EE5__getB7v160006Ev, symObjAddr: 0xEB84, symBinAddr: 0x10000F17C, symSize: 0x18 }
  - { offsetInCU: 0x24D43, offset: 0x24D43, size: 0x8, addend: 0x0, symName: __ZNSt3__114__split_bufferIP8ObstacleRNS_9allocatorIS2_EEE21_ConstructTransactionD2B7v160006Ev, symObjAddr: 0xEB9C, symBinAddr: 0x10000F194, symSize: 0x20 }
  - { offsetInCU: 0x24D6D, offset: 0x24D6D, size: 0x8, addend: 0x0, symName: __ZNSt3__113move_iteratorIPP8ObstacleEC2B7v160006ES3_, symObjAddr: 0xEBBC, symBinAddr: 0x10000F1B4, symSize: 0x20 }
  - { offsetInCU: 0x24DA5, offset: 0x24DA5, size: 0x8, addend: 0x0, symName: __ZNSt3__19allocatorIP8ObstacleE9constructB7v160006IS2_JRKS2_EEEvPT_DpOT0_, symObjAddr: 0xEBDC, symBinAddr: 0x10000F1D4, symSize: 0x28 }
  - { offsetInCU: 0x24DFB, offset: 0x24DFB, size: 0x8, addend: 0x0, symName: __ZNKSt3__114__split_bufferIP8ObstacleNS_9allocatorIS2_EEE9__end_capB7v160006Ev, symObjAddr: 0xEC04, symBinAddr: 0x10000F1FC, symSize: 0x28 }
  - { offsetInCU: 0x24E21, offset: 0x24E21, size: 0x8, addend: 0x0, symName: __ZNKSt3__117__compressed_pairIPP8ObstacleNS_9allocatorIS2_EEE5firstB7v160006Ev, symObjAddr: 0xEC2C, symBinAddr: 0x10000F224, symSize: 0x24 }
  - { offsetInCU: 0x24E47, offset: 0x24E47, size: 0x8, addend: 0x0, symName: __ZNKSt3__122__compressed_pair_elemIPP8ObstacleLi0ELb0EE5__getB7v160006Ev, symObjAddr: 0xEC50, symBinAddr: 0x10000F248, symSize: 0x14 }
  - { offsetInCU: 0x24E6D, offset: 0x24E6D, size: 0x8, addend: 0x0, symName: __ZNSt3__19allocatorI8ObstacleE8allocateB7v160006Em, symObjAddr: 0xEC64, symBinAddr: 0x10000F25C, symSize: 0x84 }
  - { offsetInCU: 0x24EAC, offset: 0x24EAC, size: 0x8, addend: 0x0, symName: __ZNSt3__116allocator_traitsINS_9allocatorI8ObstacleEEE8max_sizeB7v160006IS3_vEEmRKS3_, symObjAddr: 0xECE8, symBinAddr: 0x10000F2E0, symSize: 0x24 }
  - { offsetInCU: 0x24EDA, offset: 0x24EDA, size: 0x8, addend: 0x0, symName: __ZNKSt3__19allocatorI8ObstacleE8max_sizeB7v160006Ev, symObjAddr: 0xED0C, symBinAddr: 0x10000F304, symSize: 0x14 }
  - { offsetInCU: 0x24F00, offset: 0x24F00, size: 0x8, addend: 0x0, symName: __ZNKSt3__123__move_backward_trivialclB7v160006IP8ObstacleS3_Li0EEENS_4pairIPT_PT0_EES6_S6_S8_, symObjAddr: 0xEEAC, symBinAddr: 0x10000F4A4, symSize: 0x48 }
  - { offsetInCU: 0x24F68, offset: 0x24F68, size: 0x8, addend: 0x0, symName: __ZNSt3__117__compressed_pairIPP8ObstacleNS_9allocatorIS2_EEE6secondB7v160006Ev, symObjAddr: 0xEFC0, symBinAddr: 0x10000F5B8, symSize: 0x24 }
  - { offsetInCU: 0x24F8E, offset: 0x24F8E, size: 0x8, addend: 0x0, symName: __ZNSt3__122__compressed_pair_elemINS_9allocatorIP8ObstacleEELi1ELb1EE5__getB7v160006Ev, symObjAddr: 0xEFE4, symBinAddr: 0x10000F5DC, symSize: 0x14 }
  - { offsetInCU: 0x24FB4, offset: 0x24FB4, size: 0x8, addend: 0x0, symName: __ZNSt3__114__split_bufferIP8ObstacleRNS_9allocatorIS2_EEEC2EmmS5_, symObjAddr: 0xEFF8, symBinAddr: 0x10000F5F0, symSize: 0xD4 }
  - { offsetInCU: 0x25027, offset: 0x25027, size: 0x8, addend: 0x0, symName: __ZNSt3__117__compressed_pairIPP8ObstacleRNS_9allocatorIS2_EEEC1B7v160006IDnS6_EEOT_OT0_, symObjAddr: 0xF0CC, symBinAddr: 0x10000F6C4, symSize: 0x3C }
  - { offsetInCU: 0x2507F, offset: 0x2507F, size: 0x8, addend: 0x0, symName: __ZNSt3__117__compressed_pairIPP8ObstacleRNS_9allocatorIS2_EEEC2B7v160006IDnS6_EEOT_OT0_, symObjAddr: 0xF148, symBinAddr: 0x10000F740, symSize: 0x48 }
  - { offsetInCU: 0x250D7, offset: 0x250D7, size: 0x8, addend: 0x0, symName: __ZNSt3__122__compressed_pair_elemIPP8ObstacleLi0ELb0EEC2B7v160006IDnvEEOT_, symObjAddr: 0xF190, symBinAddr: 0x10000F788, symSize: 0x1C }
  - { offsetInCU: 0x25119, offset: 0x25119, size: 0x8, addend: 0x0, symName: __ZNSt3__122__compressed_pair_elemIRNS_9allocatorIP8ObstacleEELi1ELb0EEC2B7v160006IS5_vEEOT_, symObjAddr: 0xF1AC, symBinAddr: 0x10000F7A4, symSize: 0x20 }
  - { offsetInCU: 0x2515B, offset: 0x2515B, size: 0x8, addend: 0x0, symName: __ZNSt3__19allocatorIP8ObstacleE8allocateB7v160006Em, symObjAddr: 0xF1CC, symBinAddr: 0x10000F7C4, symSize: 0x84 }
  - { offsetInCU: 0x2519A, offset: 0x2519A, size: 0x8, addend: 0x0, symName: __ZNSt3__116allocator_traitsINS_9allocatorIP8ObstacleEEE8max_sizeB7v160006IS4_vEEmRKS4_, symObjAddr: 0xF250, symBinAddr: 0x10000F848, symSize: 0x24 }
  - { offsetInCU: 0x251C8, offset: 0x251C8, size: 0x8, addend: 0x0, symName: __ZNKSt3__19allocatorIP8ObstacleE8max_sizeB7v160006Ev, symObjAddr: 0xF274, symBinAddr: 0x10000F86C, symSize: 0x14 }
  - { offsetInCU: 0x251EE, offset: 0x251EE, size: 0x8, addend: 0x0, symName: __ZNSt3__122__allocator_destructorINS_9allocatorI8ObstacleEEEC2B7v160006ERS3_m, symObjAddr: 0xF288, symBinAddr: 0x10000F880, symSize: 0x2C }
  - { offsetInCU: 0x25234, offset: 0x25234, size: 0x8, addend: 0x0, symName: __ZNSt3__110unique_ptrIP8ObstacleNS_22__allocator_destructorINS_9allocatorIS1_EEEEEC2B7v160006ILb1EvEES2_NS_16__dependent_typeINS_27__unique_ptr_deleter_sfinaeIS6_EEXT_EE20__good_rval_ref_typeE, symObjAddr: 0xF2B4, symBinAddr: 0x10000F8AC, symSize: 0x5C }
  - { offsetInCU: 0x25285, offset: 0x25285, size: 0x8, addend: 0x0, symName: __ZNSt3__117__compressed_pairIP8ObstacleNS_22__allocator_destructorINS_9allocatorIS1_EEEEEC1B7v160006IRS2_S6_EEOT_OT0_, symObjAddr: 0xF310, symBinAddr: 0x10000F908, symSize: 0x3C }
  - { offsetInCU: 0x252DD, offset: 0x252DD, size: 0x8, addend: 0x0, symName: __ZNSt3__117__compressed_pairIP8ObstacleNS_22__allocator_destructorINS_9allocatorIS1_EEEEEC2B7v160006IRS2_S6_EEOT_OT0_, symObjAddr: 0xF34C, symBinAddr: 0x10000F944, symSize: 0x48 }
  - { offsetInCU: 0x25335, offset: 0x25335, size: 0x8, addend: 0x0, symName: __ZNSt3__122__compressed_pair_elemIP8ObstacleLi0ELb0EEC2B7v160006IRS2_vEEOT_, symObjAddr: 0xF394, symBinAddr: 0x10000F98C, symSize: 0x24 }
  - { offsetInCU: 0x25377, offset: 0x25377, size: 0x8, addend: 0x0, symName: __ZNSt3__122__compressed_pair_elemINS_22__allocator_destructorINS_9allocatorI8ObstacleEEEELi1ELb0EEC2B7v160006IS5_vEEOT_, symObjAddr: 0xF3B8, symBinAddr: 0x10000F9B0, symSize: 0x24 }
  - { offsetInCU: 0x253B9, offset: 0x253B9, size: 0x8, addend: 0x0, symName: __ZNKSt3__117__compressed_pairIP8ObstacleNS_22__allocator_destructorINS_9allocatorIS1_EEEEE5firstB7v160006Ev, symObjAddr: 0xF3DC, symBinAddr: 0x10000F9D4, symSize: 0x24 }
  - { offsetInCU: 0x253DF, offset: 0x253DF, size: 0x8, addend: 0x0, symName: __ZNKSt3__122__compressed_pair_elemIP8ObstacleLi0ELb0EE5__getB7v160006Ev, symObjAddr: 0xF400, symBinAddr: 0x10000F9F8, symSize: 0x14 }
  - { offsetInCU: 0x25405, offset: 0x25405, size: 0x8, addend: 0x0, symName: __ZNSt3__117__compressed_pairIP8ObstacleNS_22__allocator_destructorINS_9allocatorIS1_EEEEE5firstB7v160006Ev, symObjAddr: 0xF414, symBinAddr: 0x10000FA0C, symSize: 0x24 }
  - { offsetInCU: 0x2542B, offset: 0x2542B, size: 0x8, addend: 0x0, symName: __ZNSt3__122__compressed_pair_elemIP8ObstacleLi0ELb0EE5__getB7v160006Ev, symObjAddr: 0xF438, symBinAddr: 0x10000FA30, symSize: 0x14 }
  - { offsetInCU: 0x25451, offset: 0x25451, size: 0x8, addend: 0x0, symName: __ZNSt3__117__compressed_pairIPP8ObstacleNS_9allocatorIS2_EEE5firstB7v160006Ev, symObjAddr: 0xF44C, symBinAddr: 0x10000FA44, symSize: 0x24 }
  - { offsetInCU: 0x25477, offset: 0x25477, size: 0x8, addend: 0x0, symName: __ZNSt3__122__compressed_pair_elemIPP8ObstacleLi0ELb0EE5__getB7v160006Ev, symObjAddr: 0xF470, symBinAddr: 0x10000FA68, symSize: 0x14 }
  - { offsetInCU: 0x2549D, offset: 0x2549D, size: 0x8, addend: 0x0, symName: __ZNSt3__117__compressed_pairIPP8ObstacleRNS_9allocatorIS2_EEE5firstB7v160006Ev, symObjAddr: 0xF484, symBinAddr: 0x10000FA7C, symSize: 0x24 }
  - { offsetInCU: 0x254C3, offset: 0x254C3, size: 0x8, addend: 0x0, symName: __ZNSt3__110unique_ptrIP8ObstacleNS_22__allocator_destructorINS_9allocatorIS1_EEEEED2B7v160006Ev, symObjAddr: 0xF4A8, symBinAddr: 0x10000FAA0, symSize: 0x30 }
  - { offsetInCU: 0x254ED, offset: 0x254ED, size: 0x8, addend: 0x0, symName: __ZNSt3__110unique_ptrIP8ObstacleNS_22__allocator_destructorINS_9allocatorIS1_EEEEE5resetB7v160006ES2_, symObjAddr: 0xF4D8, symBinAddr: 0x10000FAD0, symSize: 0x78 }
  - { offsetInCU: 0x25531, offset: 0x25531, size: 0x8, addend: 0x0, symName: __ZNSt3__117__compressed_pairIP8ObstacleNS_22__allocator_destructorINS_9allocatorIS1_EEEEE6secondB7v160006Ev, symObjAddr: 0xF550, symBinAddr: 0x10000FB48, symSize: 0x28 }
  - { offsetInCU: 0x25557, offset: 0x25557, size: 0x8, addend: 0x0, symName: __ZNSt3__122__allocator_destructorINS_9allocatorI8ObstacleEEEclB7v160006EPS2_, symObjAddr: 0xF578, symBinAddr: 0x10000FB70, symSize: 0x34 }
  - { offsetInCU: 0x2558B, offset: 0x2558B, size: 0x8, addend: 0x0, symName: __ZNSt3__122__compressed_pair_elemINS_22__allocator_destructorINS_9allocatorI8ObstacleEEEELi1ELb0EE5__getB7v160006Ev, symObjAddr: 0xF5AC, symBinAddr: 0x10000FBA4, symSize: 0x14 }
  - { offsetInCU: 0x255B1, offset: 0x255B1, size: 0x8, addend: 0x0, symName: __ZNSt3__116allocator_traitsINS_9allocatorI8ObstacleEEE10deallocateB7v160006ERS3_PS2_m, symObjAddr: 0xF5C0, symBinAddr: 0x10000FBB8, symSize: 0x34 }
  - { offsetInCU: 0x255F3, offset: 0x255F3, size: 0x8, addend: 0x0, symName: __ZNSt3__19allocatorI8ObstacleE10deallocateB7v160006EPS1_m, symObjAddr: 0xF5F4, symBinAddr: 0x10000FBEC, symSize: 0x70 }
  - { offsetInCU: 0x25635, offset: 0x25635, size: 0x8, addend: 0x0, symName: __ZNSt3__114__split_bufferIP8ObstacleRNS_9allocatorIS2_EEED2Ev, symObjAddr: 0xF664, symBinAddr: 0x10000FC5C, symSize: 0x80 }
  - { offsetInCU: 0x25661, offset: 0x25661, size: 0x8, addend: 0x0, symName: __ZNSt3__114__split_bufferIP8ObstacleRNS_9allocatorIS2_EEE5clearB7v160006Ev, symObjAddr: 0xF6E4, symBinAddr: 0x10000FCDC, symSize: 0x28 }
  - { offsetInCU: 0x25687, offset: 0x25687, size: 0x8, addend: 0x0, symName: __ZNSt3__116allocator_traitsINS_9allocatorIP8ObstacleEEE10deallocateB7v160006ERS4_PS3_m, symObjAddr: 0xF70C, symBinAddr: 0x10000FD04, symSize: 0x34 }
  - { offsetInCU: 0x256C9, offset: 0x256C9, size: 0x8, addend: 0x0, symName: __ZNKSt3__114__split_bufferIP8ObstacleRNS_9allocatorIS2_EEE8capacityB7v160006Ev, symObjAddr: 0xF740, symBinAddr: 0x10000FD38, symSize: 0x40 }
  - { offsetInCU: 0x256EF, offset: 0x256EF, size: 0x8, addend: 0x0, symName: __ZNSt3__114__split_bufferIP8ObstacleRNS_9allocatorIS2_EEE17__destruct_at_endB7v160006EPS2_, symObjAddr: 0xF780, symBinAddr: 0x10000FD78, symSize: 0x2C }
  - { offsetInCU: 0x25723, offset: 0x25723, size: 0x8, addend: 0x0, symName: __ZNSt3__114__split_bufferIP8ObstacleRNS_9allocatorIS2_EEE17__destruct_at_endB7v160006EPS2_NS_17integral_constantIbLb0EEE, symObjAddr: 0xF7AC, symBinAddr: 0x10000FDA4, symSize: 0x94 }
  - { offsetInCU: 0x25763, offset: 0x25763, size: 0x8, addend: 0x0, symName: __ZNSt3__116allocator_traitsINS_9allocatorIP8ObstacleEEE7destroyB7v160006IS3_vEEvRS4_PT_, symObjAddr: 0xF840, symBinAddr: 0x10000FE38, symSize: 0x2C }
  - { offsetInCU: 0x257A0, offset: 0x257A0, size: 0x8, addend: 0x0, symName: __ZNSt3__19allocatorIP8ObstacleE7destroyB7v160006EPS2_, symObjAddr: 0xF86C, symBinAddr: 0x10000FE64, symSize: 0x14 }
  - { offsetInCU: 0x257D4, offset: 0x257D4, size: 0x8, addend: 0x0, symName: __ZNSt3__19allocatorIP8ObstacleE10deallocateB7v160006EPS2_m, symObjAddr: 0xF880, symBinAddr: 0x10000FE78, symSize: 0x70 }
  - { offsetInCU: 0x25816, offset: 0x25816, size: 0x8, addend: 0x0, symName: __ZNKSt3__114__split_bufferIP8ObstacleRNS_9allocatorIS2_EEE9__end_capB7v160006Ev, symObjAddr: 0xF8F0, symBinAddr: 0x10000FEE8, symSize: 0x28 }
  - { offsetInCU: 0x2583C, offset: 0x2583C, size: 0x8, addend: 0x0, symName: __ZNKSt3__117__compressed_pairIPP8ObstacleRNS_9allocatorIS2_EEE5firstB7v160006Ev, symObjAddr: 0xF918, symBinAddr: 0x10000FF10, symSize: 0x24 }
  - { offsetInCU: 0x25862, offset: 0x25862, size: 0x8, addend: 0x0, symName: __ZNSt3__19allocatorI8ObstacleE9constructB7v160006IS1_JRKS1_EEEvPT_DpOT0_, symObjAddr: 0xF93C, symBinAddr: 0x10000FF34, symSize: 0x28 }
  - { offsetInCU: 0x258B8, offset: 0x258B8, size: 0x8, addend: 0x0, symName: __ZNKSt3__114__split_bufferIP8ObstacleNS_9allocatorIS2_EEE5emptyB7v160006Ev, symObjAddr: 0xF964, symBinAddr: 0x10000FF5C, symSize: 0x28 }
  - { offsetInCU: 0x258DE, offset: 0x258DE, size: 0x8, addend: 0x0, symName: __ZNSt3__116__deque_iteratorI8ObstaclePS1_RS1_PS2_lLl512EEC1B7v160006ES4_S2_, symObjAddr: 0xF98C, symBinAddr: 0x10000FF84, symSize: 0x3C }
  - { offsetInCU: 0x25926, offset: 0x25926, size: 0x8, addend: 0x0, symName: __ZNSt3__116__deque_iteratorI8ObstaclePS1_RS1_PS2_lLl512EEC2B7v160006ES4_S2_, symObjAddr: 0xF9C8, symBinAddr: 0x10000FFC0, symSize: 0x2C }
  - { offsetInCU: 0x2596E, offset: 0x2596E, size: 0x8, addend: 0x0, symName: __ZNSt3__117__compressed_pairImNS_9allocatorI8ObstacleEEE5firstB7v160006Ev, symObjAddr: 0xF9F4, symBinAddr: 0x10000FFEC, symSize: 0x24 }
  - { offsetInCU: 0x25994, offset: 0x25994, size: 0x8, addend: 0x0, symName: __ZNSt3__110__list_impI8ObstacleNS_9allocatorIS1_EEE12__node_allocB7v160006Ev, symObjAddr: 0xFA18, symBinAddr: 0x100010010, symSize: 0x28 }
  - { offsetInCU: 0x259BA, offset: 0x259BA, size: 0x8, addend: 0x0, symName: __ZNSt3__110__list_impI8ObstacleNS_9allocatorIS1_EEE14__unlink_nodesEPNS_16__list_node_baseIS1_PvEES8_, symObjAddr: 0xFA40, symBinAddr: 0x100010038, symSize: 0x3C }
  - { offsetInCU: 0x259EF, offset: 0x259EF, size: 0x8, addend: 0x0, symName: __ZNSt3__110__list_impI8ObstacleNS_9allocatorIS1_EEE4__szB7v160006Ev, symObjAddr: 0xFA7C, symBinAddr: 0x100010074, symSize: 0x28 }
  - { offsetInCU: 0x25A15, offset: 0x25A15, size: 0x8, addend: 0x0, symName: __ZNSt3__116allocator_traitsINS_9allocatorINS_11__list_nodeI8ObstaclePvEEEEE7destroyB7v160006IS3_vvEEvRS6_PT_, symObjAddr: 0xFAA4, symBinAddr: 0x10001009C, symSize: 0x14 }
  - { offsetInCU: 0x25A4F, offset: 0x25A4F, size: 0x8, addend: 0x0, symName: __ZNSt3__116allocator_traitsINS_9allocatorINS_11__list_nodeI8ObstaclePvEEEEE10deallocateB7v160006ERS6_PS5_m, symObjAddr: 0xFAB8, symBinAddr: 0x1000100B0, symSize: 0x34 }
  - { offsetInCU: 0x25A91, offset: 0x25A91, size: 0x8, addend: 0x0, symName: __ZNSt3__115__list_iteratorI8ObstaclePvEC1B7v160006EPNS_16__list_node_baseIS1_S2_EEPKv, symObjAddr: 0xFAEC, symBinAddr: 0x1000100E4, symSize: 0x3C }
  - { offsetInCU: 0x25AD9, offset: 0x25AD9, size: 0x8, addend: 0x0, symName: __ZNSt3__117__compressed_pairImNS_9allocatorINS_11__list_nodeI8ObstaclePvEEEEE6secondB7v160006Ev, symObjAddr: 0xFB28, symBinAddr: 0x100010120, symSize: 0x24 }
  - { offsetInCU: 0x25AFF, offset: 0x25AFF, size: 0x8, addend: 0x0, symName: __ZNSt3__122__compressed_pair_elemINS_9allocatorINS_11__list_nodeI8ObstaclePvEEEELi1ELb1EE5__getB7v160006Ev, symObjAddr: 0xFB4C, symBinAddr: 0x100010144, symSize: 0x14 }
  - { offsetInCU: 0x25B25, offset: 0x25B25, size: 0x8, addend: 0x0, symName: __ZNSt3__117__compressed_pairImNS_9allocatorINS_11__list_nodeI8ObstaclePvEEEEE5firstB7v160006Ev, symObjAddr: 0xFB60, symBinAddr: 0x100010158, symSize: 0x24 }
  - { offsetInCU: 0x25B4B, offset: 0x25B4B, size: 0x8, addend: 0x0, symName: __ZNSt3__19allocatorINS_11__list_nodeI8ObstaclePvEEE10deallocateB7v160006EPS4_m, symObjAddr: 0xFB84, symBinAddr: 0x10001017C, symSize: 0x74 }
  - { offsetInCU: 0x25B8D, offset: 0x25B8D, size: 0x8, addend: 0x0, symName: __ZNSt3__115__list_iteratorI8ObstaclePvEC2B7v160006EPNS_16__list_node_baseIS1_S2_EEPKv, symObjAddr: 0xFBF8, symBinAddr: 0x1000101F0, symSize: 0x24 }
  - { offsetInCU: 0x25BD5, offset: 0x25BD5, size: 0x8, addend: 0x0, symName: __ZNSt3__121__list_const_iteratorI8ObstaclePvEC2B7v160006ERKNS_15__list_iteratorIS1_S2_EE, symObjAddr: 0xFC1C, symBinAddr: 0x100010214, symSize: 0x24 }
  - { offsetInCU: 0x25C0E, offset: 0x25C0E, size: 0x8, addend: 0x0, symName: __ZN5GraphD2Ev, symObjAddr: 0xFC40, symBinAddr: 0x100010238, symSize: 0x124 }
  - { offsetInCU: 0x25C38, offset: 0x25C38, size: 0x8, addend: 0x0, symName: __ZNSt3__15queueI8ObstacleNS_5dequeIS1_NS_9allocatorIS1_EEEEED2Ev, symObjAddr: 0xFD64, symBinAddr: 0x10001035C, symSize: 0x2C }
  - { offsetInCU: 0x25C65, offset: 0x25C65, size: 0x8, addend: 0x0, symName: __ZNSt3__15dequeI8ObstacleNS_9allocatorIS1_EEED1B7v160006Ev, symObjAddr: 0xFD90, symBinAddr: 0x100010388, symSize: 0x2C }
  - { offsetInCU: 0x25C8F, offset: 0x25C8F, size: 0x8, addend: 0x0, symName: __ZNSt3__15dequeI8ObstacleNS_9allocatorIS1_EEED2B7v160006Ev, symObjAddr: 0xFDBC, symBinAddr: 0x1000103B4, symSize: 0x9C }
  - { offsetInCU: 0x25CE5, offset: 0x25CE5, size: 0x8, addend: 0x0, symName: __ZNSt3__15dequeI8ObstacleNS_9allocatorIS1_EEE5clearEv, symObjAddr: 0xFE58, symBinAddr: 0x100010450, symSize: 0x170 }
  - { offsetInCU: 0x25D48, offset: 0x25D48, size: 0x8, addend: 0x0, symName: __ZNSt3__114__split_bufferIP8ObstacleNS_9allocatorIS2_EEED1Ev, symObjAddr: 0xFFC8, symBinAddr: 0x1000105C0, symSize: 0x2C }
  - { offsetInCU: 0x25D74, offset: 0x25D74, size: 0x8, addend: 0x0, symName: __ZNSt3__15dequeI8ObstacleNS_9allocatorIS1_EEE5beginB7v160006Ev, symObjAddr: 0xFFF4, symBinAddr: 0x1000105EC, symSize: 0xA8 }
  - { offsetInCU: 0x25DA9, offset: 0x25DA9, size: 0x8, addend: 0x0, symName: __ZNSt3__116allocator_traitsINS_9allocatorI8ObstacleEEE7destroyB7v160006IS2_vEEvRS3_PT_, symObjAddr: 0x100D0, symBinAddr: 0x1000106C8, symSize: 0x2C }
  - { offsetInCU: 0x25DE6, offset: 0x25DE6, size: 0x8, addend: 0x0, symName: __ZNSt3__116__deque_iteratorI8ObstaclePS1_RS1_PS2_lLl512EEppB7v160006Ev, symObjAddr: 0x100FC, symBinAddr: 0x1000106F4, symSize: 0x70 }
  - { offsetInCU: 0x25E0C, offset: 0x25E0C, size: 0x8, addend: 0x0, symName: __ZNSt3__19allocatorI8ObstacleE7destroyB7v160006EPS1_, symObjAddr: 0x1019C, symBinAddr: 0x100010794, symSize: 0x14 }
  - { offsetInCU: 0x25E40, offset: 0x25E40, size: 0x8, addend: 0x0, symName: __ZNSt3__114__split_bufferIP8ObstacleNS_9allocatorIS2_EEED2Ev, symObjAddr: 0x101B0, symBinAddr: 0x1000107A8, symSize: 0x80 }
  - { offsetInCU: 0x25E6C, offset: 0x25E6C, size: 0x8, addend: 0x0, symName: __ZNSt3__114__split_bufferIP8ObstacleNS_9allocatorIS2_EEE5clearB7v160006Ev, symObjAddr: 0x10230, symBinAddr: 0x100010828, symSize: 0x28 }
  - { offsetInCU: 0x25E92, offset: 0x25E92, size: 0x8, addend: 0x0, symName: __ZNSt3__114__split_bufferIP8ObstacleNS_9allocatorIS2_EEE17__destruct_at_endB7v160006EPS2_, symObjAddr: 0x10258, symBinAddr: 0x100010850, symSize: 0x2C }
  - { offsetInCU: 0x25EC6, offset: 0x25EC6, size: 0x8, addend: 0x0, symName: __ZNSt3__114__split_bufferIP8ObstacleNS_9allocatorIS2_EEE17__destruct_at_endB7v160006EPS2_NS_17integral_constantIbLb0EEE, symObjAddr: 0x10284, symBinAddr: 0x10001087C, symSize: 0x94 }
  - { offsetInCU: 0x25F06, offset: 0x25F06, size: 0x8, addend: 0x0, symName: __ZNSt3__14listI8ObstacleNS_9allocatorIS1_EEED2Ev, symObjAddr: 0x10318, symBinAddr: 0x100010910, symSize: 0x2C }
  - { offsetInCU: 0x25F33, offset: 0x25F33, size: 0x8, addend: 0x0, symName: __ZNSt3__110__list_impI8ObstacleNS_9allocatorIS1_EEED2Ev, symObjAddr: 0x10344, symBinAddr: 0x10001093C, symSize: 0x34 }
  - { offsetInCU: 0x25F5F, offset: 0x25F5F, size: 0x8, addend: 0x0, symName: __ZNSt3__110__list_impI8ObstacleNS_9allocatorIS1_EEE5clearEv, symObjAddr: 0x10378, symBinAddr: 0x100010970, symSize: 0xFC }
  - { offsetInCU: 0x25FCF, offset: 0x25FCF, size: 0x8, addend: 0x0, symName: __ZNKSt3__110__list_impI8ObstacleNS_9allocatorIS1_EEE5emptyB7v160006Ev, symObjAddr: 0x10484, symBinAddr: 0x100010A7C, symSize: 0x34 }
  - { offsetInCU: 0x25FF5, offset: 0x25FF5, size: 0x8, addend: 0x0, symName: __ZNKSt3__110__list_impI8ObstacleNS_9allocatorIS1_EEE13__end_as_linkB7v160006Ev, symObjAddr: 0x104B8, symBinAddr: 0x100010AB0, symSize: 0x4C }
  - { offsetInCU: 0x2601B, offset: 0x2601B, size: 0x8, addend: 0x0, symName: __ZNKSt3__110__list_impI8ObstacleNS_9allocatorIS1_EEE4__szB7v160006Ev, symObjAddr: 0x10514, symBinAddr: 0x100010B0C, symSize: 0x28 }
  - { offsetInCU: 0x26041, offset: 0x26041, size: 0x8, addend: 0x0, symName: __ZNKSt3__117__compressed_pairImNS_9allocatorINS_11__list_nodeI8ObstaclePvEEEEE5firstB7v160006Ev, symObjAddr: 0x1053C, symBinAddr: 0x100010B34, symSize: 0x24 }
  - { offsetInCU: 0x26067, offset: 0x26067, size: 0x8, addend: 0x0, symName: __ZNSt3__126__list_node_pointer_traitsI8ObstaclePvE26__unsafe_link_pointer_castB7v160006EPNS_16__list_node_baseIS1_S2_EE, symObjAddr: 0x10560, symBinAddr: 0x100010B58, symSize: 0x14 }
  - { offsetInCU: 0x2608B, offset: 0x2608B, size: 0x8, addend: 0x0, symName: __ZNSt3__16vectorIiNS_9allocatorIiEEED2B7v160006Ev, symObjAddr: 0x10574, symBinAddr: 0x100010B6C, symSize: 0x3C }
  - { offsetInCU: 0x260B5, offset: 0x260B5, size: 0x8, addend: 0x0, symName: __ZNSt3__16vectorIiNS_9allocatorIiEEEC2B7v160006Ev, symObjAddr: 0x105B0, symBinAddr: 0x100010BA8, symSize: 0x4C }
  - { offsetInCU: 0x260DF, offset: 0x260DF, size: 0x8, addend: 0x0, symName: __ZNSt3__16vectorIiNS_9allocatorIiEEE22__construct_one_at_endB7v160006IJRKiEEEvDpOT_, symObjAddr: 0x105FC, symBinAddr: 0x100010BF4, symSize: 0x98 }
  - { offsetInCU: 0x2612E, offset: 0x2612E, size: 0x8, addend: 0x0, symName: __ZNSt3__16vectorIiNS_9allocatorIiEEE21__push_back_slow_pathIRKiEEvOT_, symObjAddr: 0x10694, symBinAddr: 0x100010C8C, symSize: 0xE0 }
  - { offsetInCU: 0x2618C, offset: 0x2618C, size: 0x8, addend: 0x0, symName: __ZNKSt3__16vectorIiNS_9allocatorIiEEE11__recommendB7v160006Em, symObjAddr: 0x10774, symBinAddr: 0x100010D6C, symSize: 0xB4 }
  - { offsetInCU: 0x261E1, offset: 0x261E1, size: 0x8, addend: 0x0, symName: __ZNSt3__114__split_bufferIiRNS_9allocatorIiEEEC1EmmS3_, symObjAddr: 0x10828, symBinAddr: 0x100010E20, symSize: 0x44 }
  - { offsetInCU: 0x26237, offset: 0x26237, size: 0x8, addend: 0x0, symName: __ZNSt3__114__split_bufferIiRNS_9allocatorIiEEED1Ev, symObjAddr: 0x10984, symBinAddr: 0x100010F7C, symSize: 0x2C }
  - { offsetInCU: 0x26263, offset: 0x26263, size: 0x8, addend: 0x0, symName: __ZNSt3__114__split_bufferIiRNS_9allocatorIiEEEC2EmmS3_, symObjAddr: 0x109B0, symBinAddr: 0x100010FA8, symSize: 0xD4 }
  - { offsetInCU: 0x262D6, offset: 0x262D6, size: 0x8, addend: 0x0, symName: __ZNSt3__117__compressed_pairIPiRNS_9allocatorIiEEEC1B7v160006IDnS4_EEOT_OT0_, symObjAddr: 0x10A84, symBinAddr: 0x10001107C, symSize: 0x3C }
  - { offsetInCU: 0x2632E, offset: 0x2632E, size: 0x8, addend: 0x0, symName: __ZNSt3__114__split_bufferIiRNS_9allocatorIiEEE7__allocB7v160006Ev, symObjAddr: 0x10AC0, symBinAddr: 0x1000110B8, symSize: 0x28 }
  - { offsetInCU: 0x26354, offset: 0x26354, size: 0x8, addend: 0x0, symName: __ZNSt3__114__split_bufferIiRNS_9allocatorIiEEE9__end_capB7v160006Ev, symObjAddr: 0x10AE8, symBinAddr: 0x1000110E0, symSize: 0x28 }
  - { offsetInCU: 0x2637A, offset: 0x2637A, size: 0x8, addend: 0x0, symName: __ZNSt3__117__compressed_pairIPiRNS_9allocatorIiEEEC2B7v160006IDnS4_EEOT_OT0_, symObjAddr: 0x10B10, symBinAddr: 0x100011108, symSize: 0x48 }
  - { offsetInCU: 0x263D2, offset: 0x263D2, size: 0x8, addend: 0x0, symName: __ZNSt3__122__compressed_pair_elemIRNS_9allocatorIiEELi1ELb0EEC2B7v160006IS3_vEEOT_, symObjAddr: 0x10B58, symBinAddr: 0x100011150, symSize: 0x20 }
  - { offsetInCU: 0x26414, offset: 0x26414, size: 0x8, addend: 0x0, symName: __ZNSt3__117__compressed_pairIPiRNS_9allocatorIiEEE6secondB7v160006Ev, symObjAddr: 0x10B78, symBinAddr: 0x100011170, symSize: 0x28 }
  - { offsetInCU: 0x2643A, offset: 0x2643A, size: 0x8, addend: 0x0, symName: __ZNSt3__122__compressed_pair_elemIRNS_9allocatorIiEELi1ELb0EE5__getB7v160006Ev, symObjAddr: 0x10BA0, symBinAddr: 0x100011198, symSize: 0x18 }
  - { offsetInCU: 0x26460, offset: 0x26460, size: 0x8, addend: 0x0, symName: __ZNSt3__117__compressed_pairIPiRNS_9allocatorIiEEE5firstB7v160006Ev, symObjAddr: 0x10BB8, symBinAddr: 0x1000111B0, symSize: 0x24 }
  - { offsetInCU: 0x26486, offset: 0x26486, size: 0x8, addend: 0x0, symName: __ZNSt3__116reverse_iteratorIPiEC1B7v160006ES1_, symObjAddr: 0x10CC4, symBinAddr: 0x1000112BC, symSize: 0x34 }
  - { offsetInCU: 0x264BE, offset: 0x264BE, size: 0x8, addend: 0x0, symName: __ZNKSt3__116reverse_iteratorIPiE4baseB7v160006Ev, symObjAddr: 0x10CF8, symBinAddr: 0x1000112F0, symSize: 0x18 }
  - { offsetInCU: 0x264E4, offset: 0x264E4, size: 0x8, addend: 0x0, symName: __ZNKSt3__116reverse_iteratorIPiEdeB7v160006Ev, symObjAddr: 0x10DF4, symBinAddr: 0x1000113EC, symSize: 0x28 }
  - { offsetInCU: 0x26518, offset: 0x26518, size: 0x8, addend: 0x0, symName: __ZNSt3__116reverse_iteratorIPiEppB7v160006Ev, symObjAddr: 0x10E1C, symBinAddr: 0x100011414, symSize: 0x20 }
  - { offsetInCU: 0x26544, offset: 0x26544, size: 0x8, addend: 0x0, symName: __ZNSt3__119__to_address_helperINS_16reverse_iteratorIPiEEvE6__callB7v160006ERKS3_, symObjAddr: 0x10EB4, symBinAddr: 0x1000114AC, symSize: 0x4C }
  - { offsetInCU: 0x26567, offset: 0x26567, size: 0x8, addend: 0x0, symName: __ZNKSt3__116reverse_iteratorIPiEptB7v160006Ev, symObjAddr: 0x10F00, symBinAddr: 0x1000114F8, symSize: 0x24 }
  - { offsetInCU: 0x265B3, offset: 0x265B3, size: 0x8, addend: 0x0, symName: __ZNKSt3__111__move_loopINS_17_ClassicAlgPolicyEEclB7v160006INS_16reverse_iteratorIPiEES6_S6_EENS_4pairIT_T1_EES8_T0_S9_, symObjAddr: 0x111B4, symBinAddr: 0x1000117AC, symSize: 0xA0 }
  - { offsetInCU: 0x2661E, offset: 0x2661E, size: 0x8, addend: 0x0, symName: __ZNSt3__18_IterOpsINS_17_ClassicAlgPolicyEE11__iter_moveB7v160006IRNS_16reverse_iteratorIPiEEEENS_9enable_ifIXsr12is_referenceIDTdeclsr3stdE7declvalIRT_EEEEE5valueEDTclsr3stdE4movedeclsr3stdE7declvalISA_EEEEE4typeEOS9_, symObjAddr: 0x113B4, symBinAddr: 0x1000119AC, symSize: 0x28 }
  - { offsetInCU: 0x2664A, offset: 0x2664A, size: 0x8, addend: 0x0, symName: __ZNSt3__18_IterOpsINS_17_ClassicAlgPolicyEE25__validate_iter_referenceB7v160006IRNS_16reverse_iteratorIPiEEEEvv, symObjAddr: 0x113DC, symBinAddr: 0x1000119D4, symSize: 0x4 }
  - { offsetInCU: 0x26668, offset: 0x26668, size: 0x8, addend: 0x0, symName: __ZNSt3__118__unwrap_iter_implINS_16reverse_iteratorIPiEELb0EE8__unwrapB7v160006ES3_, symObjAddr: 0x113E0, symBinAddr: 0x1000119D8, symSize: 0x24 }
  - { offsetInCU: 0x2668B, offset: 0x2668B, size: 0x8, addend: 0x0, symName: __ZNSt3__14pairINS_16reverse_iteratorIPiEES3_EC1B7v160006ERKS3_S6_, symObjAddr: 0x11404, symBinAddr: 0x1000119FC, symSize: 0x3C }
  - { offsetInCU: 0x266D1, offset: 0x266D1, size: 0x8, addend: 0x0, symName: __ZNSt3__14pairINS_16reverse_iteratorIPiEES3_EC2B7v160006ERKS3_S6_, symObjAddr: 0x11440, symBinAddr: 0x100011A38, symSize: 0x34 }
  - { offsetInCU: 0x26717, offset: 0x26717, size: 0x8, addend: 0x0, symName: __ZNSt3__118__unwrap_iter_implINS_16reverse_iteratorIPiEELb0EE8__rewrapB7v160006ES3_S3_, symObjAddr: 0x11474, symBinAddr: 0x100011A6C, symSize: 0x2C }
  - { offsetInCU: 0x26744, offset: 0x26744, size: 0x8, addend: 0x0, symName: __ZNSt3__116reverse_iteratorIPiEC2B7v160006ES1_, symObjAddr: 0x114A0, symBinAddr: 0x100011A98, symSize: 0x28 }
  - { offsetInCU: 0x2677C, offset: 0x2677C, size: 0x8, addend: 0x0, symName: __ZNSt3__114__split_bufferIiRNS_9allocatorIiEEED2Ev, symObjAddr: 0x114C8, symBinAddr: 0x100011AC0, symSize: 0x80 }
  - { offsetInCU: 0x267A8, offset: 0x267A8, size: 0x8, addend: 0x0, symName: __ZNSt3__114__split_bufferIiRNS_9allocatorIiEEE5clearB7v160006Ev, symObjAddr: 0x11548, symBinAddr: 0x100011B40, symSize: 0x28 }
  - { offsetInCU: 0x267CE, offset: 0x267CE, size: 0x8, addend: 0x0, symName: __ZNKSt3__114__split_bufferIiRNS_9allocatorIiEEE8capacityB7v160006Ev, symObjAddr: 0x11570, symBinAddr: 0x100011B68, symSize: 0x40 }
  - { offsetInCU: 0x267F4, offset: 0x267F4, size: 0x8, addend: 0x0, symName: __ZNSt3__114__split_bufferIiRNS_9allocatorIiEEE17__destruct_at_endB7v160006EPi, symObjAddr: 0x115B0, symBinAddr: 0x100011BA8, symSize: 0x2C }
  - { offsetInCU: 0x26828, offset: 0x26828, size: 0x8, addend: 0x0, symName: __ZNSt3__114__split_bufferIiRNS_9allocatorIiEEE17__destruct_at_endB7v160006EPiNS_17integral_constantIbLb0EEE, symObjAddr: 0x115DC, symBinAddr: 0x100011BD4, symSize: 0x94 }
  - { offsetInCU: 0x26868, offset: 0x26868, size: 0x8, addend: 0x0, symName: __ZNKSt3__114__split_bufferIiRNS_9allocatorIiEEE9__end_capB7v160006Ev, symObjAddr: 0x11670, symBinAddr: 0x100011C68, symSize: 0x28 }
  - { offsetInCU: 0x2688E, offset: 0x2688E, size: 0x8, addend: 0x0, symName: __ZNKSt3__117__compressed_pairIPiRNS_9allocatorIiEEE5firstB7v160006Ev, symObjAddr: 0x11698, symBinAddr: 0x100011C90, symSize: 0x24 }
  - { offsetInCU: 0x268B4, offset: 0x268B4, size: 0x8, addend: 0x0, symName: __ZNSt3__16vectorIiNS_9allocatorIiEEE11__make_iterB7v160006EPi, symObjAddr: 0x116BC, symBinAddr: 0x100011CB4, symSize: 0x34 }
  - { offsetInCU: 0x268E9, offset: 0x268E9, size: 0x8, addend: 0x0, symName: __ZNSt3__111__wrap_iterIPiEC1B7v160006EPKvS1_, symObjAddr: 0x116F0, symBinAddr: 0x100011CE8, symSize: 0x3C }
  - { offsetInCU: 0x2692F, offset: 0x2692F, size: 0x8, addend: 0x0, symName: __ZNSt3__111__wrap_iterIPiEC2B7v160006EPKvS1_, symObjAddr: 0x1172C, symBinAddr: 0x100011D24, symSize: 0x24 }
  - { offsetInCU: 0x26975, offset: 0x26975, size: 0x8, addend: 0x0, symName: __ZNSt3__111char_traitsIcE6lengthEPKc, symObjAddr: 0x11944, symBinAddr: 0x100011F3C, symSize: 0x48 }
  - { offsetInCU: 0x269B9, offset: 0x269B9, size: 0x8, addend: 0x0, symName: __ZNKSt3__113basic_ostreamIcNS_11char_traitsIcEEE6sentrycvbB7v160006Ev, symObjAddr: 0x1198C, symBinAddr: 0x100011F84, symSize: 0x1C }
  - { offsetInCU: 0x269DF, offset: 0x269DF, size: 0x8, addend: 0x0, symName: __ZNSt3__119ostreambuf_iteratorIcNS_11char_traitsIcEEEC1B7v160006ERNS_13basic_ostreamIcS2_EE, symObjAddr: 0x11BF0, symBinAddr: 0x1000121E8, symSize: 0x34 }
  - { offsetInCU: 0x26A17, offset: 0x26A17, size: 0x8, addend: 0x0, symName: __ZNKSt3__18ios_base5flagsB7v160006Ev, symObjAddr: 0x11C24, symBinAddr: 0x10001221C, symSize: 0x18 }
  - { offsetInCU: 0x26A3F, offset: 0x26A3F, size: 0x8, addend: 0x0, symName: __ZNKSt3__19basic_iosIcNS_11char_traitsIcEEE4fillB7v160006Ev, symObjAddr: 0x11C3C, symBinAddr: 0x100012234, symSize: 0x64 }
  - { offsetInCU: 0x26A67, offset: 0x26A67, size: 0x8, addend: 0x0, symName: __ZNKSt3__119ostreambuf_iteratorIcNS_11char_traitsIcEEE6failedB7v160006Ev, symObjAddr: 0x11CA0, symBinAddr: 0x100012298, symSize: 0x24 }
  - { offsetInCU: 0x26A8D, offset: 0x26A8D, size: 0x8, addend: 0x0, symName: __ZNSt3__19basic_iosIcNS_11char_traitsIcEEE8setstateB7v160006Ej, symObjAddr: 0x11CC4, symBinAddr: 0x1000122BC, symSize: 0x2C }
  - { offsetInCU: 0x26AC2, offset: 0x26AC2, size: 0x8, addend: 0x0, symName: __ZNKSt3__18ios_base5widthB7v160006Ev, symObjAddr: 0x11CF0, symBinAddr: 0x1000122E8, symSize: 0x18 }
  - { offsetInCU: 0x26AEA, offset: 0x26AEA, size: 0x8, addend: 0x0, symName: __ZNSt3__115basic_streambufIcNS_11char_traitsIcEEE5sputnB7v160006EPKcl, symObjAddr: 0x11D08, symBinAddr: 0x100012300, symSize: 0x3C }
  - { offsetInCU: 0x26B2C, offset: 0x26B2C, size: 0x8, addend: 0x0, symName: __ZNSt3__112basic_stringIcNS_11char_traitsIcEENS_9allocatorIcEEEC1B7v160006Emc, symObjAddr: 0x11D44, symBinAddr: 0x10001233C, symSize: 0x3C }
  - { offsetInCU: 0x26B74, offset: 0x26B74, size: 0x8, addend: 0x0, symName: __ZNKSt3__112basic_stringIcNS_11char_traitsIcEENS_9allocatorIcEEE4dataB7v160006Ev, symObjAddr: 0x11D80, symBinAddr: 0x100012378, symSize: 0x28 }
  - { offsetInCU: 0x26B9A, offset: 0x26B9A, size: 0x8, addend: 0x0, symName: __ZNSt3__18ios_base5widthB7v160006El, symObjAddr: 0x11DA8, symBinAddr: 0x1000123A0, symSize: 0x2C }
  - { offsetInCU: 0x26BE0, offset: 0x26BE0, size: 0x8, addend: 0x0, symName: __ZNSt3__112basic_stringIcNS_11char_traitsIcEENS_9allocatorIcEEEC2B7v160006Emc, symObjAddr: 0x11DD4, symBinAddr: 0x1000123CC, symSize: 0x54 }
  - { offsetInCU: 0x26C28, offset: 0x26C28, size: 0x8, addend: 0x0, symName: __ZNSt3__117__compressed_pairINS_12basic_stringIcNS_11char_traitsIcEENS_9allocatorIcEEE5__repES5_EC1B7v160006INS_18__default_init_tagESA_EEOT_OT0_, symObjAddr: 0x11E28, symBinAddr: 0x100012420, symSize: 0x3C }
  - { offsetInCU: 0x26C80, offset: 0x26C80, size: 0x8, addend: 0x0, symName: __ZNSt3__117__compressed_pairINS_12basic_stringIcNS_11char_traitsIcEENS_9allocatorIcEEE5__repES5_EC2B7v160006INS_18__default_init_tagESA_EEOT_OT0_, symObjAddr: 0x11E74, symBinAddr: 0x10001246C, symSize: 0x3C }
  - { offsetInCU: 0x26CD8, offset: 0x26CD8, size: 0x8, addend: 0x0, symName: __ZNSt3__122__compressed_pair_elemINS_12basic_stringIcNS_11char_traitsIcEENS_9allocatorIcEEE5__repELi0ELb0EEC2B7v160006ENS_18__default_init_tagE, symObjAddr: 0x11EB0, symBinAddr: 0x1000124A8, symSize: 0x14 }
  - { offsetInCU: 0x26D0C, offset: 0x26D0C, size: 0x8, addend: 0x0, symName: __ZNSt3__122__compressed_pair_elemINS_9allocatorIcEELi1ELb1EEC2B7v160006ENS_18__default_init_tagE, symObjAddr: 0x11EC4, symBinAddr: 0x1000124BC, symSize: 0x2C }
  - { offsetInCU: 0x26D40, offset: 0x26D40, size: 0x8, addend: 0x0, symName: __ZNSt3__19allocatorIcEC2B7v160006Ev, symObjAddr: 0x11EF0, symBinAddr: 0x1000124E8, symSize: 0x2C }
  - { offsetInCU: 0x26D6A, offset: 0x26D6A, size: 0x8, addend: 0x0, symName: __ZNSt3__116__non_trivial_ifILb1ENS_9allocatorIcEEEC2B7v160006Ev, symObjAddr: 0x11F1C, symBinAddr: 0x100012514, symSize: 0x14 }
  - { offsetInCU: 0x26D94, offset: 0x26D94, size: 0x8, addend: 0x0, symName: __ZNKSt3__112basic_stringIcNS_11char_traitsIcEENS_9allocatorIcEEE13__get_pointerB7v160006Ev, symObjAddr: 0x11F44, symBinAddr: 0x10001253C, symSize: 0x54 }
  - { offsetInCU: 0x26DBA, offset: 0x26DBA, size: 0x8, addend: 0x0, symName: __ZNKSt3__112basic_stringIcNS_11char_traitsIcEENS_9allocatorIcEEE9__is_longB7v160006Ev, symObjAddr: 0x11F98, symBinAddr: 0x100012590, symSize: 0x74 }
  - { offsetInCU: 0x26DE0, offset: 0x26DE0, size: 0x8, addend: 0x0, symName: __ZNKSt3__112basic_stringIcNS_11char_traitsIcEENS_9allocatorIcEEE18__get_long_pointerB7v160006Ev, symObjAddr: 0x1200C, symBinAddr: 0x100012604, symSize: 0x28 }
  - { offsetInCU: 0x26E06, offset: 0x26E06, size: 0x8, addend: 0x0, symName: __ZNKSt3__112basic_stringIcNS_11char_traitsIcEENS_9allocatorIcEEE19__get_short_pointerB7v160006Ev, symObjAddr: 0x12034, symBinAddr: 0x10001262C, symSize: 0x28 }
  - { offsetInCU: 0x26E2C, offset: 0x26E2C, size: 0x8, addend: 0x0, symName: __ZNKSt3__117__compressed_pairINS_12basic_stringIcNS_11char_traitsIcEENS_9allocatorIcEEE5__repES5_E5firstB7v160006Ev, symObjAddr: 0x1205C, symBinAddr: 0x100012654, symSize: 0x24 }
  - { offsetInCU: 0x26E52, offset: 0x26E52, size: 0x8, addend: 0x0, symName: __ZNKSt3__122__compressed_pair_elemINS_12basic_stringIcNS_11char_traitsIcEENS_9allocatorIcEEE5__repELi0ELb0EE5__getB7v160006Ev, symObjAddr: 0x12080, symBinAddr: 0x100012678, symSize: 0x14 }
  - { offsetInCU: 0x26E78, offset: 0x26E78, size: 0x8, addend: 0x0, symName: __ZNSt3__114pointer_traitsIPKcE10pointer_toB7v160006ERS1_, symObjAddr: 0x12094, symBinAddr: 0x10001268C, symSize: 0x14 }
  - { offsetInCU: 0x26E9B, offset: 0x26E9B, size: 0x8, addend: 0x0, symName: __ZNSt3__119ostreambuf_iteratorIcNS_11char_traitsIcEEEC2B7v160006ERNS_13basic_ostreamIcS2_EE, symObjAddr: 0x120A8, symBinAddr: 0x1000126A0, symSize: 0x68 }
  - { offsetInCU: 0x26ED3, offset: 0x26ED3, size: 0x8, addend: 0x0, symName: __ZNKSt3__19basic_iosIcNS_11char_traitsIcEEE5rdbufB7v160006Ev, symObjAddr: 0x12110, symBinAddr: 0x100012708, symSize: 0x24 }
  - { offsetInCU: 0x26EFB, offset: 0x26EFB, size: 0x8, addend: 0x0, symName: __ZNKSt3__18ios_base5rdbufB7v160006Ev, symObjAddr: 0x12134, symBinAddr: 0x10001272C, symSize: 0x18 }
  - { offsetInCU: 0x26F21, offset: 0x26F21, size: 0x8, addend: 0x0, symName: __ZNSt3__111char_traitsIcE11eq_int_typeEii, symObjAddr: 0x1214C, symBinAddr: 0x100012744, symSize: 0x28 }
  - { offsetInCU: 0x26F52, offset: 0x26F52, size: 0x8, addend: 0x0, symName: __ZNSt3__111char_traitsIcE3eofEv, symObjAddr: 0x12174, symBinAddr: 0x10001276C, symSize: 0x8 }
  - { offsetInCU: 0x26F66, offset: 0x26F66, size: 0x8, addend: 0x0, symName: __ZNKSt3__19basic_iosIcNS_11char_traitsIcEEE5widenB7v160006Ec, symObjAddr: 0x1217C, symBinAddr: 0x100012774, symSize: 0x8C }
  - { offsetInCU: 0x26FCF, offset: 0x26FCF, size: 0x8, addend: 0x0, symName: __ZNKSt3__15ctypeIcE5widenB7v160006Ec, symObjAddr: 0x12234, symBinAddr: 0x10001282C, symSize: 0x38 }
  - { offsetInCU: 0x27004, offset: 0x27004, size: 0x8, addend: 0x0, symName: __ZNSt3__18ios_base8setstateB7v160006Ej, symObjAddr: 0x1226C, symBinAddr: 0x100012864, symSize: 0x34 }
  - { offsetInCU: 0x2703B, offset: 0x2703B, size: 0x8, addend: 0x0, symName: __ZNSt3__110__list_impI8ObstacleNS_9allocatorIS1_EEE5beginB7v160006Ev, symObjAddr: 0x122C4, symBinAddr: 0x1000128BC, symSize: 0x30 }
  - { offsetInCU: 0x27061, offset: 0x27061, size: 0x8, addend: 0x0, symName: __ZNSt3__110__list_impI8ObstacleNS_9allocatorIS1_EEE3endB7v160006Ev, symObjAddr: 0x122F4, symBinAddr: 0x1000128EC, symSize: 0x3C }
  - { offsetInCU: 0x27087, offset: 0x27087, size: 0x8, addend: 0x0, symName: __ZNSt3__16vectorIiNS_9allocatorIiEEEC2ERKS3_, symObjAddr: 0x12360, symBinAddr: 0x100012958, symSize: 0x118 }
  - { offsetInCU: 0x270E6, offset: 0x270E6, size: 0x8, addend: 0x0, symName: __ZNSt3__116allocator_traitsINS_9allocatorIiEEE37select_on_container_copy_constructionB7v160006IS2_vvEES2_RKS2_, symObjAddr: 0x12478, symBinAddr: 0x100012A70, symSize: 0x10 }
  - { offsetInCU: 0x2711B, offset: 0x2711B, size: 0x8, addend: 0x0, symName: __ZNSt3__117__compressed_pairIPiNS_9allocatorIiEEEC1B7v160006IDnS3_EEOT_OT0_, symObjAddr: 0x12488, symBinAddr: 0x100012A80, symSize: 0x3C }
  - { offsetInCU: 0x27173, offset: 0x27173, size: 0x8, addend: 0x0, symName: __ZNSt3__16vectorIiNS_9allocatorIiEEE18__construct_at_endIPiLi0EEEvT_S6_m, symObjAddr: 0x124C4, symBinAddr: 0x100012ABC, symSize: 0x94 }
  - { offsetInCU: 0x271E6, offset: 0x271E6, size: 0x8, addend: 0x0, symName: __ZNSt3__117__compressed_pairIPiNS_9allocatorIiEEEC2B7v160006IDnS3_EEOT_OT0_, symObjAddr: 0x12558, symBinAddr: 0x100012B50, symSize: 0x44 }
  - { offsetInCU: 0x2723E, offset: 0x2723E, size: 0x8, addend: 0x0, symName: __ZNSt3__122__compressed_pair_elemINS_9allocatorIiEELi1ELb1EEC2B7v160006IS2_vEEOT_, symObjAddr: 0x1259C, symBinAddr: 0x100012B94, symSize: 0x18 }
  - { offsetInCU: 0x27280, offset: 0x27280, size: 0x8, addend: 0x0, symName: __ZNSt3__129_AllocatorDestroyRangeReverseINS_9allocatorIiEEPiEC1B7v160006ERS2_RS3_S6_, symObjAddr: 0x126FC, symBinAddr: 0x100012CF4, symSize: 0x44 }
  - { offsetInCU: 0x272D7, offset: 0x272D7, size: 0x8, addend: 0x0, symName: __ZNSt3__116allocator_traitsINS_9allocatorIiEEE9constructB7v160006IiJRiEvEEvRS2_PT_DpOT0_, symObjAddr: 0x12740, symBinAddr: 0x100012D38, symSize: 0x34 }
  - { offsetInCU: 0x2732E, offset: 0x2732E, size: 0x8, addend: 0x0, symName: __ZNSt3__128__exception_guard_exceptionsINS_29_AllocatorDestroyRangeReverseINS_9allocatorIiEEPiEEE10__completeB7v160006Ev, symObjAddr: 0x12774, symBinAddr: 0x100012D6C, symSize: 0x1C }
  - { offsetInCU: 0x27354, offset: 0x27354, size: 0x8, addend: 0x0, symName: __ZNSt3__128__exception_guard_exceptionsINS_29_AllocatorDestroyRangeReverseINS_9allocatorIiEEPiEEED1B7v160006Ev, symObjAddr: 0x12790, symBinAddr: 0x100012D88, symSize: 0x2C }
  - { offsetInCU: 0x2737E, offset: 0x2737E, size: 0x8, addend: 0x0, symName: __ZNSt3__128__exception_guard_exceptionsINS_29_AllocatorDestroyRangeReverseINS_9allocatorIiEEPiEEEC1B7v160006ES5_, symObjAddr: 0x127BC, symBinAddr: 0x100012DB4, symSize: 0x34 }
  - { offsetInCU: 0x273B7, offset: 0x273B7, size: 0x8, addend: 0x0, symName: __ZNSt3__128__exception_guard_exceptionsINS_29_AllocatorDestroyRangeReverseINS_9allocatorIiEEPiEEEC2B7v160006ES5_, symObjAddr: 0x127F0, symBinAddr: 0x100012DE8, symSize: 0x30 }
  - { offsetInCU: 0x273F0, offset: 0x273F0, size: 0x8, addend: 0x0, symName: __ZNSt3__129_AllocatorDestroyRangeReverseINS_9allocatorIiEEPiEC2B7v160006ERS2_RS3_S6_, symObjAddr: 0x12820, symBinAddr: 0x100012E18, symSize: 0x38 }
  - { offsetInCU: 0x27447, offset: 0x27447, size: 0x8, addend: 0x0, symName: __ZNSt3__19allocatorIiE9constructB7v160006IiJRiEEEvPT_DpOT0_, symObjAddr: 0x12858, symBinAddr: 0x100012E50, symSize: 0x28 }
  - { offsetInCU: 0x2749D, offset: 0x2749D, size: 0x8, addend: 0x0, symName: __ZNSt3__128__exception_guard_exceptionsINS_29_AllocatorDestroyRangeReverseINS_9allocatorIiEEPiEEED2B7v160006Ev, symObjAddr: 0x12880, symBinAddr: 0x100012E78, symSize: 0x48 }
  - { offsetInCU: 0x274C7, offset: 0x274C7, size: 0x8, addend: 0x0, symName: __ZNKSt3__129_AllocatorDestroyRangeReverseINS_9allocatorIiEEPiEclB7v160006Ev, symObjAddr: 0x128C8, symBinAddr: 0x100012EC0, symSize: 0x68 }
  - { offsetInCU: 0x274ED, offset: 0x274ED, size: 0x8, addend: 0x0, symName: __ZNKSt3__16vectorIiNS_9allocatorIiEEE6cbeginB7v160006Ev, symObjAddr: 0x12A30, symBinAddr: 0x100013028, symSize: 0x2C }
  - { offsetInCU: 0x27513, offset: 0x27513, size: 0x8, addend: 0x0, symName: __ZNSt3__16vectorIiNS_9allocatorIiEEE17__destruct_at_endB7v160006EPi, symObjAddr: 0x12A5C, symBinAddr: 0x100013054, symSize: 0x88 }
  - { offsetInCU: 0x27557, offset: 0x27557, size: 0x8, addend: 0x0, symName: __ZNSt3__16vectorIiNS_9allocatorIiEEE27__invalidate_iterators_pastB7v160006EPi, symObjAddr: 0x12B24, symBinAddr: 0x10001311C, symSize: 0x14 }
  - { offsetInCU: 0x2758E, offset: 0x2758E, size: 0x8, addend: 0x0, symName: __ZNKSt3__111__wrap_iterIPKiE4baseB7v160006Ev, symObjAddr: 0x12B38, symBinAddr: 0x100013130, symSize: 0x18 }
  - { offsetInCU: 0x275B4, offset: 0x275B4, size: 0x8, addend: 0x0, symName: __ZNKSt3__16vectorIiNS_9allocatorIiEEE5beginB7v160006Ev, symObjAddr: 0x12B50, symBinAddr: 0x100013148, symSize: 0x30 }
  - { offsetInCU: 0x275DC, offset: 0x275DC, size: 0x8, addend: 0x0, symName: __ZNKSt3__16vectorIiNS_9allocatorIiEEE11__make_iterB7v160006EPKi, symObjAddr: 0x12B80, symBinAddr: 0x100013178, symSize: 0x34 }
  - { offsetInCU: 0x27611, offset: 0x27611, size: 0x8, addend: 0x0, symName: __ZNSt3__111__wrap_iterIPKiEC1B7v160006EPKvS2_, symObjAddr: 0x12BB4, symBinAddr: 0x1000131AC, symSize: 0x3C }
  - { offsetInCU: 0x27657, offset: 0x27657, size: 0x8, addend: 0x0, symName: __ZNSt3__111__wrap_iterIPKiEC2B7v160006EPKvS2_, symObjAddr: 0x12BF0, symBinAddr: 0x1000131E8, symSize: 0x24 }
  - { offsetInCU: 0x2769D, offset: 0x2769D, size: 0x8, addend: 0x0, symName: __ZNKSt3__16vectorIiNS_9allocatorIiEEE17__annotate_shrinkB7v160006Em, symObjAddr: 0x12C14, symBinAddr: 0x10001320C, symSize: 0xB4 }
  - { offsetInCU: 0x276EE, offset: 0x276EE, size: 0x8, addend: 0x0, symName: __ZNKSt3__114__move_trivialclB7v160006IiiLi0EEENS_4pairIPT_PT0_EES4_S4_S6_, symObjAddr: 0x12E74, symBinAddr: 0x10001346C, symSize: 0x48 }
  - { offsetInCU: 0x27756, offset: 0x27756, size: 0x8, addend: 0x0, symName: __ZNSt3__14pairIPiS1_EC1B7v160006ERKS1_S4_, symObjAddr: 0x13050, symBinAddr: 0x100013648, symSize: 0x3C }
  - { offsetInCU: 0x2779C, offset: 0x2779C, size: 0x8, addend: 0x0, symName: __ZNSt3__14pairIPiS1_EC2B7v160006ERKS1_S4_, symObjAddr: 0x1308C, symBinAddr: 0x100013684, symSize: 0x34 }
  - { offsetInCU: 0x277E2, offset: 0x277E2, size: 0x8, addend: 0x0, symName: __ZNSt3__118__unwrap_iter_implIPiLb1EE8__unwrapB7v160006ES1_, symObjAddr: 0x130C0, symBinAddr: 0x1000136B8, symSize: 0x24 }
  - { offsetInCU: 0x27805, offset: 0x27805, size: 0x8, addend: 0x0, symName: __ZNSt3__118__unwrap_iter_implIPiLb1EE8__rewrapB7v160006ES1_S1_, symObjAddr: 0x130E4, symBinAddr: 0x1000136DC, symSize: 0x50 }
  - { offsetInCU: 0x27836, offset: 0x27836, size: 0x8, addend: 0x0, symName: __ZNSt3__111__wrap_iterIPKiEC2B7v160006IPiEERKNS0_IT_EEPNS_9enable_ifIXsr14is_convertibleIS6_S2_EE5valueEvE4typeE, symObjAddr: 0x13134, symBinAddr: 0x10001372C, symSize: 0x40 }
  - { offsetInCU: 0x27881, offset: 0x27881, size: 0x8, addend: 0x0, symName: __ZNSt3__14listI8ObstacleNS_9allocatorIS1_EEE15__allocate_nodeB7v160006ERNS2_INS_11__list_nodeIS1_PvEEEE, symObjAddr: 0x13174, symBinAddr: 0x10001376C, symSize: 0x70 }
  - { offsetInCU: 0x278C5, offset: 0x278C5, size: 0x8, addend: 0x0, symName: __ZNSt3__116allocator_traitsINS_9allocatorINS_11__list_nodeI8ObstaclePvEEEEE9constructB7v160006IS3_JRKS3_EvEEvRS6_PT_DpOT0_, symObjAddr: 0x131E4, symBinAddr: 0x1000137DC, symSize: 0x34 }
  - { offsetInCU: 0x2791C, offset: 0x2791C, size: 0x8, addend: 0x0, symName: __ZNKSt3__110unique_ptrINS_11__list_nodeI8ObstaclePvEENS_22__allocator_destructorINS_9allocatorIS4_EEEEEptB7v160006Ev, symObjAddr: 0x13218, symBinAddr: 0x100013810, symSize: 0x28 }
  - { offsetInCU: 0x27942, offset: 0x27942, size: 0x8, addend: 0x0, symName: __ZNSt3__14listI8ObstacleNS_9allocatorIS1_EEE20__link_nodes_at_backEPNS_16__list_node_baseIS1_PvEES8_, symObjAddr: 0x13240, symBinAddr: 0x100013838, symSize: 0x60 }
  - { offsetInCU: 0x27988, offset: 0x27988, size: 0x8, addend: 0x0, symName: __ZNKSt3__110unique_ptrINS_11__list_nodeI8ObstaclePvEENS_22__allocator_destructorINS_9allocatorIS4_EEEEE3getB7v160006Ev, symObjAddr: 0x132A0, symBinAddr: 0x100013898, symSize: 0x28 }
  - { offsetInCU: 0x279AE, offset: 0x279AE, size: 0x8, addend: 0x0, symName: __ZNSt3__111__list_nodeI8ObstaclePvE9__as_linkB7v160006Ev, symObjAddr: 0x132C8, symBinAddr: 0x1000138C0, symSize: 0x24 }
  - { offsetInCU: 0x279D4, offset: 0x279D4, size: 0x8, addend: 0x0, symName: __ZNSt3__110unique_ptrINS_11__list_nodeI8ObstaclePvEENS_22__allocator_destructorINS_9allocatorIS4_EEEEE7releaseB7v160006Ev, symObjAddr: 0x132EC, symBinAddr: 0x1000138E4, symSize: 0x44 }
  - { offsetInCU: 0x27A09, offset: 0x27A09, size: 0x8, addend: 0x0, symName: __ZNSt3__110unique_ptrINS_11__list_nodeI8ObstaclePvEENS_22__allocator_destructorINS_9allocatorIS4_EEEEED1B7v160006Ev, symObjAddr: 0x13330, symBinAddr: 0x100013928, symSize: 0x2C }
  - { offsetInCU: 0x27A33, offset: 0x27A33, size: 0x8, addend: 0x0, symName: __ZNSt3__116allocator_traitsINS_9allocatorINS_11__list_nodeI8ObstaclePvEEEEE8allocateB7v160006ERS6_m, symObjAddr: 0x1335C, symBinAddr: 0x100013954, symSize: 0x2C }
  - { offsetInCU: 0x27A66, offset: 0x27A66, size: 0x8, addend: 0x0, symName: __ZNSt3__122__allocator_destructorINS_9allocatorINS_11__list_nodeI8ObstaclePvEEEEEC1B7v160006ERS6_m, symObjAddr: 0x13388, symBinAddr: 0x100013980, symSize: 0x3C }
  - { offsetInCU: 0x27AB2, offset: 0x27AB2, size: 0x8, addend: 0x0, symName: __ZNSt3__110unique_ptrINS_11__list_nodeI8ObstaclePvEENS_22__allocator_destructorINS_9allocatorIS4_EEEEEC1B7v160006ILb1EvEEPS4_NS_16__dependent_typeINS_27__unique_ptr_deleter_sfinaeIS8_EEXT_EE20__good_rval_ref_typeE, symObjAddr: 0x133C4, symBinAddr: 0x1000139BC, symSize: 0x3C }
  - { offsetInCU: 0x27B03, offset: 0x27B03, size: 0x8, addend: 0x0, symName: __ZNSt3__19allocatorINS_11__list_nodeI8ObstaclePvEEE8allocateB7v160006Em, symObjAddr: 0x13400, symBinAddr: 0x1000139F8, symSize: 0x8C }
  - { offsetInCU: 0x27B42, offset: 0x27B42, size: 0x8, addend: 0x0, symName: __ZNSt3__116allocator_traitsINS_9allocatorINS_11__list_nodeI8ObstaclePvEEEEE8max_sizeB7v160006IS6_vEEmRKS6_, symObjAddr: 0x1348C, symBinAddr: 0x100013A84, symSize: 0x24 }
  - { offsetInCU: 0x27B70, offset: 0x27B70, size: 0x8, addend: 0x0, symName: __ZNKSt3__19allocatorINS_11__list_nodeI8ObstaclePvEEE8max_sizeB7v160006Ev, symObjAddr: 0x134B0, symBinAddr: 0x100013AA8, symSize: 0x18 }
  - { offsetInCU: 0x27B96, offset: 0x27B96, size: 0x8, addend: 0x0, symName: __ZNSt3__122__allocator_destructorINS_9allocatorINS_11__list_nodeI8ObstaclePvEEEEEC2B7v160006ERS6_m, symObjAddr: 0x134C8, symBinAddr: 0x100013AC0, symSize: 0x2C }
  - { offsetInCU: 0x27BDC, offset: 0x27BDC, size: 0x8, addend: 0x0, symName: __ZNSt3__110unique_ptrINS_11__list_nodeI8ObstaclePvEENS_22__allocator_destructorINS_9allocatorIS4_EEEEEC2B7v160006ILb1EvEEPS4_NS_16__dependent_typeINS_27__unique_ptr_deleter_sfinaeIS8_EEXT_EE20__good_rval_ref_typeE, symObjAddr: 0x134F4, symBinAddr: 0x100013AEC, symSize: 0x5C }
  - { offsetInCU: 0x27C2D, offset: 0x27C2D, size: 0x8, addend: 0x0, symName: __ZNSt3__117__compressed_pairIPNS_11__list_nodeI8ObstaclePvEENS_22__allocator_destructorINS_9allocatorIS4_EEEEEC1B7v160006IRS5_S9_EEOT_OT0_, symObjAddr: 0x13550, symBinAddr: 0x100013B48, symSize: 0x3C }
  - { offsetInCU: 0x27C85, offset: 0x27C85, size: 0x8, addend: 0x0, symName: __ZNSt3__117__compressed_pairIPNS_11__list_nodeI8ObstaclePvEENS_22__allocator_destructorINS_9allocatorIS4_EEEEEC2B7v160006IRS5_S9_EEOT_OT0_, symObjAddr: 0x1358C, symBinAddr: 0x100013B84, symSize: 0x48 }
  - { offsetInCU: 0x27CDD, offset: 0x27CDD, size: 0x8, addend: 0x0, symName: __ZNSt3__122__compressed_pair_elemIPNS_11__list_nodeI8ObstaclePvEELi0ELb0EEC2B7v160006IRS5_vEEOT_, symObjAddr: 0x135D4, symBinAddr: 0x100013BCC, symSize: 0x24 }
  - { offsetInCU: 0x27D1F, offset: 0x27D1F, size: 0x8, addend: 0x0, symName: __ZNSt3__122__compressed_pair_elemINS_22__allocator_destructorINS_9allocatorINS_11__list_nodeI8ObstaclePvEEEEEELi1ELb0EEC2B7v160006IS8_vEEOT_, symObjAddr: 0x135F8, symBinAddr: 0x100013BF0, symSize: 0x24 }
  - { offsetInCU: 0x27D61, offset: 0x27D61, size: 0x8, addend: 0x0, symName: __ZNSt3__19allocatorINS_11__list_nodeI8ObstaclePvEEE9constructB7v160006IS2_JRKS2_EEEvPT_DpOT0_, symObjAddr: 0x1361C, symBinAddr: 0x100013C14, symSize: 0x28 }
  - { offsetInCU: 0x27DB7, offset: 0x27DB7, size: 0x8, addend: 0x0, symName: __ZNKSt3__117__compressed_pairIPNS_11__list_nodeI8ObstaclePvEENS_22__allocator_destructorINS_9allocatorIS4_EEEEE5firstB7v160006Ev, symObjAddr: 0x13644, symBinAddr: 0x100013C3C, symSize: 0x24 }
  - { offsetInCU: 0x27DDD, offset: 0x27DDD, size: 0x8, addend: 0x0, symName: __ZNKSt3__122__compressed_pair_elemIPNS_11__list_nodeI8ObstaclePvEELi0ELb0EE5__getB7v160006Ev, symObjAddr: 0x13668, symBinAddr: 0x100013C60, symSize: 0x14 }
  - { offsetInCU: 0x27E03, offset: 0x27E03, size: 0x8, addend: 0x0, symName: __ZNSt3__117__compressed_pairIPNS_11__list_nodeI8ObstaclePvEENS_22__allocator_destructorINS_9allocatorIS4_EEEEE5firstB7v160006Ev, symObjAddr: 0x1367C, symBinAddr: 0x100013C74, symSize: 0x24 }
  - { offsetInCU: 0x27E29, offset: 0x27E29, size: 0x8, addend: 0x0, symName: __ZNSt3__122__compressed_pair_elemIPNS_11__list_nodeI8ObstaclePvEELi0ELb0EE5__getB7v160006Ev, symObjAddr: 0x136A0, symBinAddr: 0x100013C98, symSize: 0x14 }
  - { offsetInCU: 0x27E4F, offset: 0x27E4F, size: 0x8, addend: 0x0, symName: __ZNSt3__110unique_ptrINS_11__list_nodeI8ObstaclePvEENS_22__allocator_destructorINS_9allocatorIS4_EEEEED2B7v160006Ev, symObjAddr: 0x136B4, symBinAddr: 0x100013CAC, symSize: 0x30 }
  - { offsetInCU: 0x27E79, offset: 0x27E79, size: 0x8, addend: 0x0, symName: __ZNSt3__110unique_ptrINS_11__list_nodeI8ObstaclePvEENS_22__allocator_destructorINS_9allocatorIS4_EEEEE5resetB7v160006EPS4_, symObjAddr: 0x136E4, symBinAddr: 0x100013CDC, symSize: 0x78 }
  - { offsetInCU: 0x27EBD, offset: 0x27EBD, size: 0x8, addend: 0x0, symName: __ZNSt3__117__compressed_pairIPNS_11__list_nodeI8ObstaclePvEENS_22__allocator_destructorINS_9allocatorIS4_EEEEE6secondB7v160006Ev, symObjAddr: 0x1375C, symBinAddr: 0x100013D54, symSize: 0x28 }
  - { offsetInCU: 0x27EE3, offset: 0x27EE3, size: 0x8, addend: 0x0, symName: __ZNSt3__122__allocator_destructorINS_9allocatorINS_11__list_nodeI8ObstaclePvEEEEEclB7v160006EPS5_, symObjAddr: 0x13784, symBinAddr: 0x100013D7C, symSize: 0x34 }
  - { offsetInCU: 0x27F17, offset: 0x27F17, size: 0x8, addend: 0x0, symName: __ZNSt3__122__compressed_pair_elemINS_22__allocator_destructorINS_9allocatorINS_11__list_nodeI8ObstaclePvEEEEEELi1ELb0EE5__getB7v160006Ev, symObjAddr: 0x137B8, symBinAddr: 0x100013DB0, symSize: 0x14 }
  - { offsetInCU: 0x27F3D, offset: 0x27F3D, size: 0x8, addend: 0x0, symName: __ZNSt3__14listI5CoinsNS_9allocatorIS1_EEE15__allocate_nodeB7v160006ERNS2_INS_11__list_nodeIS1_PvEEEE, symObjAddr: 0x137CC, symBinAddr: 0x100013DC4, symSize: 0x70 }
  - { offsetInCU: 0x27F81, offset: 0x27F81, size: 0x8, addend: 0x0, symName: __ZNSt3__116allocator_traitsINS_9allocatorINS_11__list_nodeI5CoinsPvEEEEE9constructB7v160006IS3_JRKS3_EvEEvRS6_PT_DpOT0_, symObjAddr: 0x1383C, symBinAddr: 0x100013E34, symSize: 0x34 }
  - { offsetInCU: 0x27FD8, offset: 0x27FD8, size: 0x8, addend: 0x0, symName: __ZNKSt3__110unique_ptrINS_11__list_nodeI5CoinsPvEENS_22__allocator_destructorINS_9allocatorIS4_EEEEEptB7v160006Ev, symObjAddr: 0x13870, symBinAddr: 0x100013E68, symSize: 0x28 }
  - { offsetInCU: 0x27FFE, offset: 0x27FFE, size: 0x8, addend: 0x0, symName: __ZNSt3__14listI5CoinsNS_9allocatorIS1_EEE20__link_nodes_at_backEPNS_16__list_node_baseIS1_PvEES8_, symObjAddr: 0x13898, symBinAddr: 0x100013E90, symSize: 0x60 }
  - { offsetInCU: 0x28044, offset: 0x28044, size: 0x8, addend: 0x0, symName: __ZNKSt3__110unique_ptrINS_11__list_nodeI5CoinsPvEENS_22__allocator_destructorINS_9allocatorIS4_EEEEE3getB7v160006Ev, symObjAddr: 0x138F8, symBinAddr: 0x100013EF0, symSize: 0x28 }
  - { offsetInCU: 0x2806A, offset: 0x2806A, size: 0x8, addend: 0x0, symName: __ZNSt3__111__list_nodeI5CoinsPvE9__as_linkB7v160006Ev, symObjAddr: 0x13920, symBinAddr: 0x100013F18, symSize: 0x24 }
  - { offsetInCU: 0x28090, offset: 0x28090, size: 0x8, addend: 0x0, symName: __ZNSt3__110unique_ptrINS_11__list_nodeI5CoinsPvEENS_22__allocator_destructorINS_9allocatorIS4_EEEEE7releaseB7v160006Ev, symObjAddr: 0x13944, symBinAddr: 0x100013F3C, symSize: 0x44 }
  - { offsetInCU: 0x280C5, offset: 0x280C5, size: 0x8, addend: 0x0, symName: __ZNSt3__110unique_ptrINS_11__list_nodeI5CoinsPvEENS_22__allocator_destructorINS_9allocatorIS4_EEEEED1B7v160006Ev, symObjAddr: 0x13988, symBinAddr: 0x100013F80, symSize: 0x2C }
  - { offsetInCU: 0x280EF, offset: 0x280EF, size: 0x8, addend: 0x0, symName: __ZNSt3__116allocator_traitsINS_9allocatorINS_11__list_nodeI5CoinsPvEEEEE8allocateB7v160006ERS6_m, symObjAddr: 0x139B4, symBinAddr: 0x100013FAC, symSize: 0x2C }
  - { offsetInCU: 0x28122, offset: 0x28122, size: 0x8, addend: 0x0, symName: __ZNSt3__122__allocator_destructorINS_9allocatorINS_11__list_nodeI5CoinsPvEEEEEC1B7v160006ERS6_m, symObjAddr: 0x139E0, symBinAddr: 0x100013FD8, symSize: 0x3C }
  - { offsetInCU: 0x2816E, offset: 0x2816E, size: 0x8, addend: 0x0, symName: __ZNSt3__110unique_ptrINS_11__list_nodeI5CoinsPvEENS_22__allocator_destructorINS_9allocatorIS4_EEEEEC1B7v160006ILb1EvEEPS4_NS_16__dependent_typeINS_27__unique_ptr_deleter_sfinaeIS8_EEXT_EE20__good_rval_ref_typeE, symObjAddr: 0x13A1C, symBinAddr: 0x100014014, symSize: 0x3C }
  - { offsetInCU: 0x281BF, offset: 0x281BF, size: 0x8, addend: 0x0, symName: __ZNSt3__19allocatorINS_11__list_nodeI5CoinsPvEEE8allocateB7v160006Em, symObjAddr: 0x13A58, symBinAddr: 0x100014050, symSize: 0x84 }
  - { offsetInCU: 0x281FE, offset: 0x281FE, size: 0x8, addend: 0x0, symName: __ZNSt3__116allocator_traitsINS_9allocatorINS_11__list_nodeI5CoinsPvEEEEE8max_sizeB7v160006IS6_vEEmRKS6_, symObjAddr: 0x13ADC, symBinAddr: 0x1000140D4, symSize: 0x24 }
  - { offsetInCU: 0x2822C, offset: 0x2822C, size: 0x8, addend: 0x0, symName: __ZNKSt3__19allocatorINS_11__list_nodeI5CoinsPvEEE8max_sizeB7v160006Ev, symObjAddr: 0x13B00, symBinAddr: 0x1000140F8, symSize: 0x14 }
  - { offsetInCU: 0x28252, offset: 0x28252, size: 0x8, addend: 0x0, symName: __ZNSt3__122__allocator_destructorINS_9allocatorINS_11__list_nodeI5CoinsPvEEEEEC2B7v160006ERS6_m, symObjAddr: 0x13B14, symBinAddr: 0x10001410C, symSize: 0x2C }
  - { offsetInCU: 0x28298, offset: 0x28298, size: 0x8, addend: 0x0, symName: __ZNSt3__110unique_ptrINS_11__list_nodeI5CoinsPvEENS_22__allocator_destructorINS_9allocatorIS4_EEEEEC2B7v160006ILb1EvEEPS4_NS_16__dependent_typeINS_27__unique_ptr_deleter_sfinaeIS8_EEXT_EE20__good_rval_ref_typeE, symObjAddr: 0x13B40, symBinAddr: 0x100014138, symSize: 0x5C }
  - { offsetInCU: 0x282E9, offset: 0x282E9, size: 0x8, addend: 0x0, symName: __ZNSt3__117__compressed_pairIPNS_11__list_nodeI5CoinsPvEENS_22__allocator_destructorINS_9allocatorIS4_EEEEEC1B7v160006IRS5_S9_EEOT_OT0_, symObjAddr: 0x13B9C, symBinAddr: 0x100014194, symSize: 0x3C }
  - { offsetInCU: 0x28341, offset: 0x28341, size: 0x8, addend: 0x0, symName: __ZNSt3__117__compressed_pairIPNS_11__list_nodeI5CoinsPvEENS_22__allocator_destructorINS_9allocatorIS4_EEEEEC2B7v160006IRS5_S9_EEOT_OT0_, symObjAddr: 0x13BD8, symBinAddr: 0x1000141D0, symSize: 0x48 }
  - { offsetInCU: 0x28399, offset: 0x28399, size: 0x8, addend: 0x0, symName: __ZNSt3__122__compressed_pair_elemIPNS_11__list_nodeI5CoinsPvEELi0ELb0EEC2B7v160006IRS5_vEEOT_, symObjAddr: 0x13C20, symBinAddr: 0x100014218, symSize: 0x24 }
  - { offsetInCU: 0x283DB, offset: 0x283DB, size: 0x8, addend: 0x0, symName: __ZNSt3__122__compressed_pair_elemINS_22__allocator_destructorINS_9allocatorINS_11__list_nodeI5CoinsPvEEEEEELi1ELb0EEC2B7v160006IS8_vEEOT_, symObjAddr: 0x13C44, symBinAddr: 0x10001423C, symSize: 0x24 }
  - { offsetInCU: 0x2841D, offset: 0x2841D, size: 0x8, addend: 0x0, symName: __ZNSt3__19allocatorINS_11__list_nodeI5CoinsPvEEE9constructB7v160006IS2_JRKS2_EEEvPT_DpOT0_, symObjAddr: 0x13C68, symBinAddr: 0x100014260, symSize: 0x30 }
  - { offsetInCU: 0x28473, offset: 0x28473, size: 0x8, addend: 0x0, symName: __ZNKSt3__117__compressed_pairIPNS_11__list_nodeI5CoinsPvEENS_22__allocator_destructorINS_9allocatorIS4_EEEEE5firstB7v160006Ev, symObjAddr: 0x13C98, symBinAddr: 0x100014290, symSize: 0x24 }
  - { offsetInCU: 0x28499, offset: 0x28499, size: 0x8, addend: 0x0, symName: __ZNKSt3__122__compressed_pair_elemIPNS_11__list_nodeI5CoinsPvEELi0ELb0EE5__getB7v160006Ev, symObjAddr: 0x13CBC, symBinAddr: 0x1000142B4, symSize: 0x14 }
  - { offsetInCU: 0x284BF, offset: 0x284BF, size: 0x8, addend: 0x0, symName: __ZNSt3__117__compressed_pairIPNS_11__list_nodeI5CoinsPvEENS_22__allocator_destructorINS_9allocatorIS4_EEEEE5firstB7v160006Ev, symObjAddr: 0x13CD0, symBinAddr: 0x1000142C8, symSize: 0x24 }
  - { offsetInCU: 0x284E5, offset: 0x284E5, size: 0x8, addend: 0x0, symName: __ZNSt3__122__compressed_pair_elemIPNS_11__list_nodeI5CoinsPvEELi0ELb0EE5__getB7v160006Ev, symObjAddr: 0x13CF4, symBinAddr: 0x1000142EC, symSize: 0x14 }
  - { offsetInCU: 0x2850B, offset: 0x2850B, size: 0x8, addend: 0x0, symName: __ZNSt3__110unique_ptrINS_11__list_nodeI5CoinsPvEENS_22__allocator_destructorINS_9allocatorIS4_EEEEED2B7v160006Ev, symObjAddr: 0x13D08, symBinAddr: 0x100014300, symSize: 0x30 }
  - { offsetInCU: 0x28535, offset: 0x28535, size: 0x8, addend: 0x0, symName: __ZNSt3__110unique_ptrINS_11__list_nodeI5CoinsPvEENS_22__allocator_destructorINS_9allocatorIS4_EEEEE5resetB7v160006EPS4_, symObjAddr: 0x13D38, symBinAddr: 0x100014330, symSize: 0x78 }
  - { offsetInCU: 0x28579, offset: 0x28579, size: 0x8, addend: 0x0, symName: __ZNSt3__117__compressed_pairIPNS_11__list_nodeI5CoinsPvEENS_22__allocator_destructorINS_9allocatorIS4_EEEEE6secondB7v160006Ev, symObjAddr: 0x13DB0, symBinAddr: 0x1000143A8, symSize: 0x28 }
  - { offsetInCU: 0x2859F, offset: 0x2859F, size: 0x8, addend: 0x0, symName: __ZNSt3__122__allocator_destructorINS_9allocatorINS_11__list_nodeI5CoinsPvEEEEEclB7v160006EPS5_, symObjAddr: 0x13DD8, symBinAddr: 0x1000143D0, symSize: 0x34 }
  - { offsetInCU: 0x285D3, offset: 0x285D3, size: 0x8, addend: 0x0, symName: __ZNSt3__122__compressed_pair_elemINS_22__allocator_destructorINS_9allocatorINS_11__list_nodeI5CoinsPvEEEEEELi1ELb0EE5__getB7v160006Ev, symObjAddr: 0x13E0C, symBinAddr: 0x100014404, symSize: 0x14 }
  - { offsetInCU: 0x285F9, offset: 0x285F9, size: 0x8, addend: 0x0, symName: __ZNSt3__112basic_stringIcNS_11char_traitsIcEENS_9allocatorIcEEEC2B7v160006IDnEEPKc, symObjAddr: 0x13E20, symBinAddr: 0x100014418, symSize: 0x60 }
  - { offsetInCU: 0x28637, offset: 0x28637, size: 0x8, addend: 0x0, symName: __ZNSt3__123mersenne_twister_engineIjLm32ELm624ELm397ELm31ELj2567483615ELm11ELj4294967295ELm7ELj2636928640ELm15ELj4022730752ELm18ELj1812433253EEC2B7v160006Ej, symObjAddr: 0x13E80, symBinAddr: 0x100014478, symSize: 0x34 }
  - { offsetInCU: 0x2866F, offset: 0x2866F, size: 0x8, addend: 0x0, symName: __ZNSt3__123mersenne_twister_engineIjLm32ELm624ELm397ELm31ELj2567483615ELm11ELj4294967295ELm7ELj2636928640ELm15ELj4022730752ELm18ELj1812433253EE4seedEj, symObjAddr: 0x13EB4, symBinAddr: 0x1000144AC, symSize: 0xC4 }
  - { offsetInCU: 0x286C2, offset: 0x286C2, size: 0x8, addend: 0x0, symName: __ZNSt3__123mersenne_twister_engineIjLm32ELm624ELm397ELm31ELj2567483615ELm11ELj4294967295ELm7ELj2636928640ELm15ELj4022730752ELm18ELj1812433253EE8__rshiftB7v160006ILm30EEENS_9enable_ifIXltT_L_ZNS1_3_DtEEEjE4typeEj, symObjAddr: 0x13F78, symBinAddr: 0x100014570, symSize: 0x18 }
  - { offsetInCU: 0x286EF, offset: 0x286EF, size: 0x8, addend: 0x0, symName: __ZNSt3__18_IterOpsINS_17_ClassicAlgPolicyEE4nextB7v160006INS_11__wrap_iterIPiEEEET_S7_S7_, symObjAddr: 0x140D8, symBinAddr: 0x1000146D0, symSize: 0x20 }
  - { offsetInCU: 0x28725, offset: 0x28725, size: 0x8, addend: 0x0, symName: __ZNSt3__124uniform_int_distributionIlEC1Ell, symObjAddr: 0x14140, symBinAddr: 0x100014738, symSize: 0x3C }
  - { offsetInCU: 0x2876B, offset: 0x2876B, size: 0x8, addend: 0x0, symName: __ZNSt3__124uniform_int_distributionIlE10param_typeC1Ell, symObjAddr: 0x142F0, symBinAddr: 0x1000148E8, symSize: 0x3C }
  - { offsetInCU: 0x287B7, offset: 0x287B7, size: 0x8, addend: 0x0, symName: __ZNSt3__18_IterOpsINS_17_ClassicAlgPolicyEE9iter_swapB7v160006IRNS_11__wrap_iterIPiEES6_EEvOT_OT0_, symObjAddr: 0x1432C, symBinAddr: 0x100014924, symSize: 0x44 }
  - { offsetInCU: 0x287FA, offset: 0x287FA, size: 0x8, addend: 0x0, symName: __ZNKSt3__111__wrap_iterIPiEplB7v160006El, symObjAddr: 0x14370, symBinAddr: 0x100014968, symSize: 0x3C }
  - { offsetInCU: 0x2883C, offset: 0x2883C, size: 0x8, addend: 0x0, symName: __ZNSt3__124uniform_int_distributionIlEC2Ell, symObjAddr: 0x143AC, symBinAddr: 0x1000149A4, symSize: 0x3C }
  - { offsetInCU: 0x28882, offset: 0x28882, size: 0x8, addend: 0x0, symName: __ZNKSt3__124uniform_int_distributionIlE10param_type1bEv, symObjAddr: 0x143E8, symBinAddr: 0x1000149E0, symSize: 0x18 }
  - { offsetInCU: 0x288A8, offset: 0x288A8, size: 0x8, addend: 0x0, symName: __ZNKSt3__124uniform_int_distributionIlE10param_type1aEv, symObjAddr: 0x14400, symBinAddr: 0x1000149F8, symSize: 0x18 }
  - { offsetInCU: 0x288CE, offset: 0x288CE, size: 0x8, addend: 0x0, symName: __ZNSt3__125__independent_bits_engineINS_23mersenne_twister_engineIjLm32ELm624ELm397ELm31ELj2567483615ELm11ELj4294967295ELm7ELj2636928640ELm15ELj4022730752ELm18ELj1812433253EEEmEC1ERS2_m, symObjAddr: 0x14418, symBinAddr: 0x100014A10, symSize: 0x3C }
  - { offsetInCU: 0x28915, offset: 0x28915, size: 0x8, addend: 0x0, symName: __ZNSt3__125__independent_bits_engineINS_23mersenne_twister_engineIjLm32ELm624ELm397ELm31ELj2567483615ELm11ELj4294967295ELm7ELj2636928640ELm15ELj4022730752ELm18ELj1812433253EEEmEclEv, symObjAddr: 0x14454, symBinAddr: 0x100014A4C, symSize: 0x24 }
  - { offsetInCU: 0x2893B, offset: 0x2893B, size: 0x8, addend: 0x0, symName: __ZNSt3__125__independent_bits_engineINS_23mersenne_twister_engineIjLm32ELm624ELm397ELm31ELj2567483615ELm11ELj4294967295ELm7ELj2636928640ELm15ELj4022730752ELm18ELj1812433253EEEmEC2ERS2_m, symObjAddr: 0x144CC, symBinAddr: 0x100014AC4, symSize: 0x264 }
  - { offsetInCU: 0x28982, offset: 0x28982, size: 0x8, addend: 0x0, symName: __ZNSt3__125__independent_bits_engineINS_23mersenne_twister_engineIjLm32ELm624ELm397ELm31ELj2567483615ELm11ELj4294967295ELm7ELj2636928640ELm15ELj4022730752ELm18ELj1812433253EEEmE6__evalENS_17integral_constantIbLb1EEE, symObjAddr: 0x14730, symBinAddr: 0x100014D28, symSize: 0x1F0 }
  - { offsetInCU: 0x28A3F, offset: 0x28A3F, size: 0x8, addend: 0x0, symName: __ZNSt3__123mersenne_twister_engineIjLm32ELm624ELm397ELm31ELj2567483615ELm11ELj4294967295ELm7ELj2636928640ELm15ELj4022730752ELm18ELj1812433253EEclEv, symObjAddr: 0x14920, symBinAddr: 0x100014F18, symSize: 0x14C }
  - { offsetInCU: 0x28AB2, offset: 0x28AB2, size: 0x8, addend: 0x0, symName: __ZNSt3__123mersenne_twister_engineIjLm32ELm624ELm397ELm31ELj2567483615ELm11ELj4294967295ELm7ELj2636928640ELm15ELj4022730752ELm18ELj1812433253EE3minB7v160006Ev, symObjAddr: 0x14A6C, symBinAddr: 0x100015064, symSize: 0x8 }
  - { offsetInCU: 0x28AC6, offset: 0x28AC6, size: 0x8, addend: 0x0, symName: __ZNSt3__123mersenne_twister_engineIjLm32ELm624ELm397ELm31ELj2567483615ELm11ELj4294967295ELm7ELj2636928640ELm15ELj4022730752ELm18ELj1812433253EE8__rshiftB7v160006ILm1EEENS_9enable_ifIXltT_L_ZNS1_3_DtEEEjE4typeEj, symObjAddr: 0x14A74, symBinAddr: 0x10001506C, symSize: 0x18 }
  - { offsetInCU: 0x28AF3, offset: 0x28AF3, size: 0x8, addend: 0x0, symName: __ZNSt3__123mersenne_twister_engineIjLm32ELm624ELm397ELm31ELj2567483615ELm11ELj4294967295ELm7ELj2636928640ELm15ELj4022730752ELm18ELj1812433253EE8__rshiftB7v160006ILm11EEENS_9enable_ifIXltT_L_ZNS1_3_DtEEEjE4typeEj, symObjAddr: 0x14A8C, symBinAddr: 0x100015084, symSize: 0x18 }
  - { offsetInCU: 0x28B20, offset: 0x28B20, size: 0x8, addend: 0x0, symName: __ZNSt3__123mersenne_twister_engineIjLm32ELm624ELm397ELm31ELj2567483615ELm11ELj4294967295ELm7ELj2636928640ELm15ELj4022730752ELm18ELj1812433253EE8__lshiftB7v160006ILm7EEENS_9enable_ifIXltT_Lm32EEjE4typeEj, symObjAddr: 0x14AA4, symBinAddr: 0x10001509C, symSize: 0x1C }
  - { offsetInCU: 0x28B4D, offset: 0x28B4D, size: 0x8, addend: 0x0, symName: __ZNSt3__123mersenne_twister_engineIjLm32ELm624ELm397ELm31ELj2567483615ELm11ELj4294967295ELm7ELj2636928640ELm15ELj4022730752ELm18ELj1812433253EE8__lshiftB7v160006ILm15EEENS_9enable_ifIXltT_Lm32EEjE4typeEj, symObjAddr: 0x14AC0, symBinAddr: 0x1000150B8, symSize: 0x1C }
  - { offsetInCU: 0x28B7A, offset: 0x28B7A, size: 0x8, addend: 0x0, symName: __ZNSt3__123mersenne_twister_engineIjLm32ELm624ELm397ELm31ELj2567483615ELm11ELj4294967295ELm7ELj2636928640ELm15ELj4022730752ELm18ELj1812433253EE8__rshiftB7v160006ILm18EEENS_9enable_ifIXltT_L_ZNS1_3_DtEEEjE4typeEj, symObjAddr: 0x14ADC, symBinAddr: 0x1000150D4, symSize: 0x18 }
  - { offsetInCU: 0x28BA7, offset: 0x28BA7, size: 0x8, addend: 0x0, symName: __ZNSt3__124uniform_int_distributionIlE10param_typeC2Ell, symObjAddr: 0x14B10, symBinAddr: 0x100015108, symSize: 0x2C }
  - { offsetInCU: 0x28BED, offset: 0x28BED, size: 0x8, addend: 0x0, symName: __ZNSt3__111__wrap_iterIPiEpLB7v160006El, symObjAddr: 0x14B3C, symBinAddr: 0x100015134, symSize: 0x28 }
  - { offsetInCU: 0x28C21, offset: 0x28C21, size: 0x8, addend: 0x0, symName: __ZNSt3__19basic_iosIcNS_11char_traitsIcEEEC2B7v160006Ev, symObjAddr: 0x14B64, symBinAddr: 0x10001515C, symSize: 0x44 }
  - { offsetInCU: 0x28C4B, offset: 0x28C4B, size: 0x8, addend: 0x0, symName: __ZNSt3__113basic_ostreamIcNS_11char_traitsIcEEEC2B7v160006EPNS_15basic_streambufIcS2_EE, symObjAddr: 0x14BA8, symBinAddr: 0x1000151A0, symSize: 0x60 }
  - { offsetInCU: 0x28C90, offset: 0x28C90, size: 0x8, addend: 0x0, symName: __ZNSt3__18ios_baseC2B7v160006Ev, symObjAddr: 0x14C08, symBinAddr: 0x100015200, symSize: 0x24 }
  - { offsetInCU: 0x28CBA, offset: 0x28CBA, size: 0x8, addend: 0x0, symName: __ZNSt3__19basic_iosIcNS_11char_traitsIcEEE4initB7v160006EPNS_15basic_streambufIcS2_EE, symObjAddr: 0x14C2C, symBinAddr: 0x100015224, symSize: 0x44 }
  - { offsetInCU: 0x28CF1, offset: 0x28CF1, size: 0x8, addend: 0x0, symName: __ZNKSt3__112basic_stringIcNS_11char_traitsIcEENS_9allocatorIcEEE4sizeB7v160006Ev, symObjAddr: 0x14C70, symBinAddr: 0x100015268, symSize: 0x54 }
  - { offsetInCU: 0x28D17, offset: 0x28D17, size: 0x8, addend: 0x0, symName: __ZNKSt3__112basic_stringIcNS_11char_traitsIcEENS_9allocatorIcEEE15__get_long_sizeB7v160006Ev, symObjAddr: 0x14CC4, symBinAddr: 0x1000152BC, symSize: 0x28 }
  - { offsetInCU: 0x28D3D, offset: 0x28D3D, size: 0x8, addend: 0x0, symName: __ZNKSt3__112basic_stringIcNS_11char_traitsIcEENS_9allocatorIcEEE16__get_short_sizeB7v160006Ev, symObjAddr: 0x14CEC, symBinAddr: 0x1000152E4, symSize: 0x34 }
  - { offsetInCU: 0x28D63, offset: 0x28D63, size: 0x8, addend: 0x0, symName: __ZNSt3__14listI8ObstacleNS_9allocatorIS1_EEEC2B7v160006Ev, symObjAddr: 0x14D20, symBinAddr: 0x100015318, symSize: 0x64 }
  - { offsetInCU: 0x28D8D, offset: 0x28D8D, size: 0x8, addend: 0x0, symName: __ZNSt3__110__list_impI8ObstacleNS_9allocatorIS1_EEEC2Ev, symObjAddr: 0x14D84, symBinAddr: 0x10001537C, symSize: 0x44 }
  - { offsetInCU: 0x28DB9, offset: 0x28DB9, size: 0x8, addend: 0x0, symName: __ZNSt3__116__list_node_baseI8ObstaclePvEC1B7v160006Ev, symObjAddr: 0x14DD8, symBinAddr: 0x1000153D0, symSize: 0x2C }
  - { offsetInCU: 0x28DE3, offset: 0x28DE3, size: 0x8, addend: 0x0, symName: __ZNSt3__117__compressed_pairImNS_9allocatorINS_11__list_nodeI8ObstaclePvEEEEEC1B7v160006IiNS_18__default_init_tagEEEOT_OT0_, symObjAddr: 0x14E04, symBinAddr: 0x1000153FC, symSize: 0x3C }
  - { offsetInCU: 0x28E3B, offset: 0x28E3B, size: 0x8, addend: 0x0, symName: __ZNSt3__116__list_node_baseI8ObstaclePvEC2B7v160006Ev, symObjAddr: 0x14E40, symBinAddr: 0x100015438, symSize: 0x4C }
  - { offsetInCU: 0x28E65, offset: 0x28E65, size: 0x8, addend: 0x0, symName: __ZNSt3__117__compressed_pairImNS_9allocatorINS_11__list_nodeI8ObstaclePvEEEEEC2B7v160006IiNS_18__default_init_tagEEEOT_OT0_, symObjAddr: 0x14E8C, symBinAddr: 0x100015484, symSize: 0x40 }
  - { offsetInCU: 0x28EBD, offset: 0x28EBD, size: 0x8, addend: 0x0, symName: __ZNSt3__122__compressed_pair_elemINS_9allocatorINS_11__list_nodeI8ObstaclePvEEEELi1ELb1EEC2B7v160006ENS_18__default_init_tagE, symObjAddr: 0x14ECC, symBinAddr: 0x1000154C4, symSize: 0x2C }
  - { offsetInCU: 0x28EF1, offset: 0x28EF1, size: 0x8, addend: 0x0, symName: __ZNSt3__19allocatorINS_11__list_nodeI8ObstaclePvEEEC2B7v160006Ev, symObjAddr: 0x14EF8, symBinAddr: 0x1000154F0, symSize: 0x2C }
  - { offsetInCU: 0x28F1B, offset: 0x28F1B, size: 0x8, addend: 0x0, symName: __ZNSt3__116__non_trivial_ifILb1ENS_9allocatorINS_11__list_nodeI8ObstaclePvEEEEEC2B7v160006Ev, symObjAddr: 0x14F24, symBinAddr: 0x10001551C, symSize: 0x14 }
  - { offsetInCU: 0x28F45, offset: 0x28F45, size: 0x8, addend: 0x0, symName: __ZNSt3__15queueI8ObstacleNS_5dequeIS1_NS_9allocatorIS1_EEEEEC2B7v160006Ev, symObjAddr: 0x14F38, symBinAddr: 0x100015530, symSize: 0x2C }
  - { offsetInCU: 0x28F6F, offset: 0x28F6F, size: 0x8, addend: 0x0, symName: __ZNSt3__15dequeI8ObstacleNS_9allocatorIS1_EEEC1B7v160006Ev, symObjAddr: 0x14F64, symBinAddr: 0x10001555C, symSize: 0x2C }
  - { offsetInCU: 0x28F99, offset: 0x28F99, size: 0x8, addend: 0x0, symName: __ZNSt3__15dequeI8ObstacleNS_9allocatorIS1_EEEC2B7v160006Ev, symObjAddr: 0x14F90, symBinAddr: 0x100015588, symSize: 0x78 }
  - { offsetInCU: 0x28FC3, offset: 0x28FC3, size: 0x8, addend: 0x0, symName: __ZNSt3__114__split_bufferIP8ObstacleNS_9allocatorIS2_EEEC1Ev, symObjAddr: 0x15008, symBinAddr: 0x100015600, symSize: 0x2C }
  - { offsetInCU: 0x28FEF, offset: 0x28FEF, size: 0x8, addend: 0x0, symName: __ZNSt3__117__compressed_pairImNS_9allocatorI8ObstacleEEEC1B7v160006IiNS_18__default_init_tagEEEOT_OT0_, symObjAddr: 0x15034, symBinAddr: 0x10001562C, symSize: 0x3C }
  - { offsetInCU: 0x29047, offset: 0x29047, size: 0x8, addend: 0x0, symName: __ZNSt3__114__split_bufferIP8ObstacleNS_9allocatorIS2_EEEC2Ev, symObjAddr: 0x15070, symBinAddr: 0x100015668, symSize: 0x48 }
  - { offsetInCU: 0x29073, offset: 0x29073, size: 0x8, addend: 0x0, symName: __ZNSt3__117__compressed_pairIPP8ObstacleNS_9allocatorIS2_EEEC1B7v160006IDnNS_18__default_init_tagEEEOT_OT0_, symObjAddr: 0x150B8, symBinAddr: 0x1000156B0, symSize: 0x3C }
  - { offsetInCU: 0x290CB, offset: 0x290CB, size: 0x8, addend: 0x0, symName: __ZNSt3__117__compressed_pairIPP8ObstacleNS_9allocatorIS2_EEEC2B7v160006IDnNS_18__default_init_tagEEEOT_OT0_, symObjAddr: 0x150F4, symBinAddr: 0x1000156EC, symSize: 0x40 }
  - { offsetInCU: 0x29123, offset: 0x29123, size: 0x8, addend: 0x0, symName: __ZNSt3__122__compressed_pair_elemINS_9allocatorIP8ObstacleEELi1ELb1EEC2B7v160006ENS_18__default_init_tagE, symObjAddr: 0x15134, symBinAddr: 0x10001572C, symSize: 0x2C }
  - { offsetInCU: 0x29157, offset: 0x29157, size: 0x8, addend: 0x0, symName: __ZNSt3__19allocatorIP8ObstacleEC2B7v160006Ev, symObjAddr: 0x15160, symBinAddr: 0x100015758, symSize: 0x2C }
  - { offsetInCU: 0x29181, offset: 0x29181, size: 0x8, addend: 0x0, symName: __ZNSt3__116__non_trivial_ifILb1ENS_9allocatorIP8ObstacleEEEC2B7v160006Ev, symObjAddr: 0x1518C, symBinAddr: 0x100015784, symSize: 0x14 }
  - { offsetInCU: 0x291AB, offset: 0x291AB, size: 0x8, addend: 0x0, symName: __ZNSt3__117__compressed_pairImNS_9allocatorI8ObstacleEEEC2B7v160006IiNS_18__default_init_tagEEEOT_OT0_, symObjAddr: 0x151A0, symBinAddr: 0x100015798, symSize: 0x40 }
  - { offsetInCU: 0x29203, offset: 0x29203, size: 0x8, addend: 0x0, symName: __ZNSt3__122__compressed_pair_elemINS_9allocatorI8ObstacleEELi1ELb1EEC2B7v160006ENS_18__default_init_tagE, symObjAddr: 0x151E0, symBinAddr: 0x1000157D8, symSize: 0x2C }
  - { offsetInCU: 0x29237, offset: 0x29237, size: 0x8, addend: 0x0, symName: __ZNSt3__19allocatorI8ObstacleEC2B7v160006Ev, symObjAddr: 0x1520C, symBinAddr: 0x100015804, symSize: 0x2C }
  - { offsetInCU: 0x29261, offset: 0x29261, size: 0x8, addend: 0x0, symName: __ZNSt3__116__non_trivial_ifILb1ENS_9allocatorI8ObstacleEEEC2B7v160006Ev, symObjAddr: 0x15238, symBinAddr: 0x100015830, symSize: 0x14 }
  - { offsetInCU: 0x2928B, offset: 0x2928B, size: 0x8, addend: 0x0, symName: __ZNSt3__14listI5CoinsNS_9allocatorIS1_EEEC2B7v160006Ev, symObjAddr: 0x1524C, symBinAddr: 0x100015844, symSize: 0x64 }
  - { offsetInCU: 0x292B5, offset: 0x292B5, size: 0x8, addend: 0x0, symName: __ZNSt3__110__list_impI5CoinsNS_9allocatorIS1_EEEC2Ev, symObjAddr: 0x152B0, symBinAddr: 0x1000158A8, symSize: 0x44 }
  - { offsetInCU: 0x292E1, offset: 0x292E1, size: 0x8, addend: 0x0, symName: __ZNSt3__116__list_node_baseI5CoinsPvEC1B7v160006Ev, symObjAddr: 0x15304, symBinAddr: 0x1000158FC, symSize: 0x2C }
  - { offsetInCU: 0x2930B, offset: 0x2930B, size: 0x8, addend: 0x0, symName: __ZNSt3__117__compressed_pairImNS_9allocatorINS_11__list_nodeI5CoinsPvEEEEEC1B7v160006IiNS_18__default_init_tagEEEOT_OT0_, symObjAddr: 0x15330, symBinAddr: 0x100015928, symSize: 0x3C }
  - { offsetInCU: 0x29363, offset: 0x29363, size: 0x8, addend: 0x0, symName: __ZNSt3__116__list_node_baseI5CoinsPvEC2B7v160006Ev, symObjAddr: 0x1536C, symBinAddr: 0x100015964, symSize: 0x4C }
  - { offsetInCU: 0x2938D, offset: 0x2938D, size: 0x8, addend: 0x0, symName: __ZNSt3__117__compressed_pairImNS_9allocatorINS_11__list_nodeI5CoinsPvEEEEEC2B7v160006IiNS_18__default_init_tagEEEOT_OT0_, symObjAddr: 0x153B8, symBinAddr: 0x1000159B0, symSize: 0x40 }
  - { offsetInCU: 0x293E5, offset: 0x293E5, size: 0x8, addend: 0x0, symName: __ZNSt3__122__compressed_pair_elemINS_9allocatorINS_11__list_nodeI5CoinsPvEEEELi1ELb1EEC2B7v160006ENS_18__default_init_tagE, symObjAddr: 0x153F8, symBinAddr: 0x1000159F0, symSize: 0x2C }
  - { offsetInCU: 0x29419, offset: 0x29419, size: 0x8, addend: 0x0, symName: __ZNSt3__19allocatorINS_11__list_nodeI5CoinsPvEEEC2B7v160006Ev, symObjAddr: 0x15424, symBinAddr: 0x100015A1C, symSize: 0x2C }
  - { offsetInCU: 0x29443, offset: 0x29443, size: 0x8, addend: 0x0, symName: __ZNSt3__116__non_trivial_ifILb1ENS_9allocatorINS_11__list_nodeI5CoinsPvEEEEEC2B7v160006Ev, symObjAddr: 0x15450, symBinAddr: 0x100015A48, symSize: 0x14 }
  - { offsetInCU: 0x2946D, offset: 0x2946D, size: 0x8, addend: 0x0, symName: __ZNSt3__14listI5CoinsNS_9allocatorIS1_EEEC2ERKS4_, symObjAddr: 0x15464, symBinAddr: 0x100015A5C, symSize: 0xEC }
  - { offsetInCU: 0x294D4, offset: 0x294D4, size: 0x8, addend: 0x0, symName: __ZNSt3__116allocator_traitsINS_9allocatorINS_11__list_nodeI5CoinsPvEEEEE37select_on_container_copy_constructionB7v160006IS6_vvEES6_RKS6_, symObjAddr: 0x15550, symBinAddr: 0x100015B48, symSize: 0x10 }
  - { offsetInCU: 0x29503, offset: 0x29503, size: 0x8, addend: 0x0, symName: __ZNKSt3__110__list_impI5CoinsNS_9allocatorIS1_EEE12__node_allocB7v160006Ev, symObjAddr: 0x15560, symBinAddr: 0x100015B58, symSize: 0x28 }
  - { offsetInCU: 0x29529, offset: 0x29529, size: 0x8, addend: 0x0, symName: __ZNSt3__110__list_impI5CoinsNS_9allocatorIS1_EEEC2ERKNS2_INS_11__list_nodeIS1_PvEEEE, symObjAddr: 0x15588, symBinAddr: 0x100015B80, symSize: 0x48 }
  - { offsetInCU: 0x29564, offset: 0x29564, size: 0x8, addend: 0x0, symName: __ZNKSt3__14listI5CoinsNS_9allocatorIS1_EEE5beginB7v160006Ev, symObjAddr: 0x155D0, symBinAddr: 0x100015BC8, symSize: 0x2C }
  - { offsetInCU: 0x2958A, offset: 0x2958A, size: 0x8, addend: 0x0, symName: __ZNKSt3__14listI5CoinsNS_9allocatorIS1_EEE3endB7v160006Ev, symObjAddr: 0x155FC, symBinAddr: 0x100015BF4, symSize: 0x2C }
  - { offsetInCU: 0x295B0, offset: 0x295B0, size: 0x8, addend: 0x0, symName: __ZNKSt3__121__list_const_iteratorI5CoinsPvEdeB7v160006Ev, symObjAddr: 0x1565C, symBinAddr: 0x100015C54, symSize: 0x2C }
  - { offsetInCU: 0x295D6, offset: 0x295D6, size: 0x8, addend: 0x0, symName: __ZNSt3__121__list_const_iteratorI5CoinsPvEppB7v160006Ev, symObjAddr: 0x15688, symBinAddr: 0x100015C80, symSize: 0x20 }
  - { offsetInCU: 0x295FC, offset: 0x295FC, size: 0x8, addend: 0x0, symName: __ZNKSt3__117__compressed_pairImNS_9allocatorINS_11__list_nodeI5CoinsPvEEEEE6secondB7v160006Ev, symObjAddr: 0x156A8, symBinAddr: 0x100015CA0, symSize: 0x24 }
  - { offsetInCU: 0x29622, offset: 0x29622, size: 0x8, addend: 0x0, symName: __ZNKSt3__122__compressed_pair_elemINS_9allocatorINS_11__list_nodeI5CoinsPvEEEELi1ELb1EE5__getB7v160006Ev, symObjAddr: 0x156CC, symBinAddr: 0x100015CC4, symSize: 0x14 }
  - { offsetInCU: 0x29648, offset: 0x29648, size: 0x8, addend: 0x0, symName: __ZNSt3__117__compressed_pairImNS_9allocatorINS_11__list_nodeI5CoinsPvEEEEEC1B7v160006IiRKS6_EEOT_OT0_, symObjAddr: 0x156E0, symBinAddr: 0x100015CD8, symSize: 0x3C }
  - { offsetInCU: 0x296A0, offset: 0x296A0, size: 0x8, addend: 0x0, symName: __ZNSt3__117__compressed_pairImNS_9allocatorINS_11__list_nodeI5CoinsPvEEEEEC2B7v160006IiRKS6_EEOT_OT0_, symObjAddr: 0x1571C, symBinAddr: 0x100015D14, symSize: 0x44 }
  - { offsetInCU: 0x296F8, offset: 0x296F8, size: 0x8, addend: 0x0, symName: __ZNSt3__122__compressed_pair_elemINS_9allocatorINS_11__list_nodeI5CoinsPvEEEELi1ELb1EEC2B7v160006IRKS6_vEEOT_, symObjAddr: 0x15760, symBinAddr: 0x100015D58, symSize: 0x18 }
  - { offsetInCU: 0x2973A, offset: 0x2973A, size: 0x8, addend: 0x0, symName: __ZNKSt3__110__list_impI5CoinsNS_9allocatorIS1_EEE5beginB7v160006Ev, symObjAddr: 0x15778, symBinAddr: 0x100015D70, symSize: 0x30 }
  - { offsetInCU: 0x29760, offset: 0x29760, size: 0x8, addend: 0x0, symName: __ZNSt3__121__list_const_iteratorI5CoinsPvEC1B7v160006EPNS_16__list_node_baseIS1_S2_EEPKv, symObjAddr: 0x157A8, symBinAddr: 0x100015DA0, symSize: 0x3C }
  - { offsetInCU: 0x297A8, offset: 0x297A8, size: 0x8, addend: 0x0, symName: __ZNSt3__121__list_const_iteratorI5CoinsPvEC2B7v160006EPNS_16__list_node_baseIS1_S2_EEPKv, symObjAddr: 0x157E4, symBinAddr: 0x100015DDC, symSize: 0x24 }
  - { offsetInCU: 0x297F0, offset: 0x297F0, size: 0x8, addend: 0x0, symName: __ZNKSt3__110__list_impI5CoinsNS_9allocatorIS1_EEE3endB7v160006Ev, symObjAddr: 0x15808, symBinAddr: 0x100015E00, symSize: 0x3C }
  - { offsetInCU: 0x298AA, offset: 0x298AA, size: 0x8, addend: 0x0, symName: __ZNKSt3__113basic_istreamIcNS_11char_traitsIcEEE6sentrycvbB7v160006Ev, symObjAddr: 0x15874, symBinAddr: 0x100015E6C, symSize: 0x1C }
  - { offsetInCU: 0x298D0, offset: 0x298D0, size: 0x8, addend: 0x0, symName: __ZNSt3__115basic_streambufIcNS_11char_traitsIcEEE6sbumpcB7v160006Ev, symObjAddr: 0x15890, symBinAddr: 0x100015E88, symSize: 0x78 }
  - { offsetInCU: 0x298F6, offset: 0x298F6, size: 0x8, addend: 0x0, symName: __ZNSt3__111char_traitsIcE12to_char_typeEi, symObjAddr: 0x15908, symBinAddr: 0x100015F00, symSize: 0x18 }
  - { offsetInCU: 0x29919, offset: 0x29919, size: 0x8, addend: 0x0, symName: __ZNSt3__18ios_base18__setstate_nothrowB7v160006Ej, symObjAddr: 0x15920, symBinAddr: 0x100015F18, symSize: 0x64 }
  - { offsetInCU: 0x2994E, offset: 0x2994E, size: 0x8, addend: 0x0, symName: __ZNKSt3__19basic_iosIcNS_11char_traitsIcEEE10exceptionsB7v160006Ev, symObjAddr: 0x15984, symBinAddr: 0x100015F7C, symSize: 0x24 }
  - { offsetInCU: 0x29974, offset: 0x29974, size: 0x8, addend: 0x0, symName: __ZNSt3__111char_traitsIcE11to_int_typeEc, symObjAddr: 0x159A8, symBinAddr: 0x100015FA0, symSize: 0x14 }
  - { offsetInCU: 0x29997, offset: 0x29997, size: 0x8, addend: 0x0, symName: __ZNKSt3__18ios_base10exceptionsB7v160006Ev, symObjAddr: 0x159BC, symBinAddr: 0x100015FB4, symSize: 0x18 }
...
